(dp0
S'METTS MARK'
p1
(dp2
S'to_messages'
p3
I807
sS'deferral_payments'
p4
S'NaN'
p5
sS'expenses'
p6
I94299
sS'poi'
p7
I00
sS'long_term_incentive'
p8
g5
sS'email_address'
p9
S'mark.metts@enron.com'
p10
sS'from_poi_to_this_person'
p11
I38
sS'from_poi_to_this_person_ratio'
p12
F0.04708798017348203
sS'deferred_income'
p13
g5
sS'expenses_scaled'
p14
F0.4118321195022199
sS'poi_mention_rate'
p15
F0.0
sS'restricted_stock_deferred'
p16
g5
sS'shared_receipt_with_poi'
p17
I702
sS'loan_advances'
p18
g5
sS'from_messages'
p19
I29
sS'other'
p20
I1740
sS'director_fees'
p21
g5
sS'other_scaled'
p22
F0.0001677650385960943
sS'bonus'
p23
I600000
sS'total_stock_value'
p24
I585062
sS'bonus_scaled'
p25
F0.06683480453972258
sS'salary_scaled'
p26
F0.32887760953779366
sS'from_this_person_to_poi'
p27
I1
sS'email_addresses_per_poi_scaled'
p28
F0.0
sS'restricted_stock'
p29
I585062
sS'exercised_stock_options_scaled'
p30
F0.03766953765368387
sS'salary'
p31
I365788
sS'total_payments'
p32
I1061827
sS'director_fees_scaled'
p33
F0.7644543353717891
sS'exercised_stock_options'
p34
g5
sS'from_this_person_to_poi_ratio'
p35
F0.034482758620689655
sS'email_addresses_per_poi'
p36
F0.0
ssS'BAXTER JOHN C'
p37
(dp38
g3
g5
sg4
I1295738
sg6
I11200
sg7
I00
sg8
I1586055
sg9
g5
sg11
g5
sg12
F0.0
sg13
I-1386055
sg14
F0.04834328456138049
sg15
F0.0
sg16
g5
sg17
g5
sg18
g5
sg19
g5
sg20
I2660303
sg21
g5
sg22
F0.25679257764224867
sg23
I1200000
sg24
I10623258
sg25
F0.14249684741488022
sg26
F0.24003381404615312
sg27
g5
sg28
F0.0
sg29
I3942714
sg30
F0.19441664733591246
sg31
I267102
sg32
I5634343
sg33
F0.7644543353717891
sg34
I6680544
sg35
F0.0
sg36
F0.0
ssS'ELLIOTT STEVEN'
p39
(dp40
g3
g5
sg4
g5
sg6
I78552
sg7
I00
sg8
g5
sg9
S'steven.elliott@enron.com'
p41
sg11
g5
sg12
F0.0
sg13
I-400729
sg14
F0.3429521247512193
sg15
F0.0
sg16
g5
sg17
g5
sg18
g5
sg19
g5
sg20
I12961
sg21
g5
sg22
F0.0012509016888186339
sg23
I350000
sg24
I6678735
sg25
F0.03530895334174023
sg26
F0.15346319391491214
sg27
g5
sg28
F0.0
sg29
I1788391
sg30
F0.1422927620619175
sg31
I170941
sg32
I211725
sg33
F0.7644543353717891
sg34
I4890344
sg35
F0.0
sg36
F0.0
ssS'CORDES WILLIAM R'
p42
(dp43
g3
I764
sg4
g5
sg6
g5
sg7
I00
sg8
g5
sg9
S'bill.cordes@enron.com'
p44
sg11
I10
sg12
F0.013089005235602094
sg13
g5
sg14
F0.20295912341709862
sg15
F0.0
sg16
g5
sg17
I58
sg18
g5
sg19
I12
sg20
g5
sg21
g5
sg22
F0.005017748054557809
sg23
g5
sg24
I1038185
sg25
F0.08575031525851198
sg26
F0.23250667773395478
sg27
I0
sg28
F0.0
sg29
I386335
sg30
F0.01888377145164147
sg31
g5
sg32
g5
sg33
F0.7644543353717891
sg34
I651850
sg35
F0.0
sg36
F0.0
ssS'HANNON KEVIN P'
p45
(dp46
g3
I1045
sg4
g5
sg6
I34039
sg7
I01
sg8
I1617011
sg9
S'kevin.hannon@enron.com'
p47
sg11
I32
sg12
F0.03062200956937799
sg13
I-3117011
sg14
F0.1482448658224526
sg15
F0.0
sg16
g5
sg17
I1035
sg18
g5
sg19
I32
sg20
I11350
sg21
g5
sg22
F0.0010953956605227145
sg23
I1500000
sg24
I6391065
sg25
F0.18032786885245902
sg26
F0.2185993458656567
sg27
I21
sg28
F0.0
sg29
I853064
sg30
F0.16115009597148053
sg31
I243293
sg32
I288682
sg33
F0.7644543353717891
sg34
I5538001
sg35
F0.65625
sg36
F0.0
ssS'MORDAUNT KRISTINA M'
p48
(dp49
g3
g5
sg4
g5
sg6
I35018
sg7
I00
sg8
g5
sg9
S'kristina.mordaunt@enron.com'
p50
sg11
g5
sg12
F0.0
sg13
g5
sg14
F0.15252717450735953
sg15
F0.0
sg16
g5
sg17
g5
sg18
g5
sg19
g5
sg20
I1411
sg21
g5
sg22
F0.00013600744498383017
sg23
I325000
sg24
I208510
sg25
F0.032156368221942
sg26
F0.24002571163892794
sg27
g5
sg28
F0.0
sg29
I208510
sg30
F0.03766953765368387
sg31
I267093
sg32
I628522
sg33
F0.7644543353717891
sg34
g5
sg35
F0.0
sg36
F0.0
ssS'MEYER ROCKFORD G'
p51
(dp52
g3
I232
sg4
I1848227
sg6
g5
sg7
I00
sg8
g5
sg9
S'rockford.meyer@enron.com'
p53
sg11
I0
sg12
F0.0
sg13
g5
sg14
F0.20295912341709862
sg15
F0.0
sg16
g5
sg17
I22
sg18
g5
sg19
I28
sg20
g5
sg21
g5
sg22
F0.005017748054557809
sg23
g5
sg24
I955873
sg25
F0.08575031525851198
sg26
F0.23250667773395478
sg27
I0
sg28
F0.0
sg29
I462384
sg30
F0.014272895238997564
sg31
g5
sg32
I1848227
sg33
F0.7644543353717891
sg34
I493489
sg35
F0.0
sg36
F0.0
ssS'MCMAHON JEFFREY'
p54
(dp55
g3
I2355
sg4
g5
sg6
I137108
sg7
I00
sg8
I694862
sg9
S'jeffrey.mcmahon@enron.com'
p56
sg11
I58
sg12
F0.024628450106157114
sg13
g5
sg14
F0.5990857992695142
sg15
F0.0
sg16
g5
sg17
I2228
sg18
g5
sg19
I48
sg20
I297353
sg21
g5
sg22
F0.028702590328876426
sg23
I2600000
sg24
I1662855
sg25
F0.31904161412358134
sg26
F0.3330728559455014
sg27
I26
sg28
F0.0
sg29
I558801
sg30
F0.032050249731410005
sg31
I370448
sg32
I4099771
sg33
F0.7644543353717891
sg34
I1104054
sg35
F0.5416666666666666
sg36
F0.0
ssS'HAEDICKE MARK E'
p57
(dp58
g3
I4009
sg4
I2157527
sg6
I76169
sg7
I00
sg8
I983346
sg9
S'mark.haedicke@enron.com'
p59
sg11
I180
sg12
F0.04489897730107259
sg13
I-934484
sg14
F0.3325284867572119
sg15
F0.05555555555555555
sg16
I-329825
sg17
I1847
sg18
g5
sg19
I1941
sg20
I52382
sg21
g5
sg22
F0.005056117791520954
sg23
I1150000
sg24
I803094
sg25
F0.13619167717528374
sg26
F0.33638313943072484
sg27
I61
sg28
F0.5
sg29
I524169
sg30
F0.0176288616899896
sg31
I374125
sg32
I3859065
sg33
F0.7644543353717891
sg34
I608750
sg35
F0.03142709943328181
sg36
F1.0
ssS'PIPER GREGORY F'
p60
(dp61
g3
I1238
sg4
I1130036
sg6
I43057
sg7
I00
sg8
g5
sg9
S'greg.piper@enron.com'
p62
sg11
I61
sg12
F0.049273021001615507
sg13
I-33333
sg14
F0.18769109638475165
sg15
F0.0
sg16
I-409554
sg17
I742
sg18
g5
sg19
I222
sg20
I778
sg21
g5
sg22
F7.490544876327338e-05
sg23
I400000
sg24
I880290
sg25
F0.0416141235813367
sg26
F0.17700518824142655
sg27
I48
sg28
F0.0
sg29
I409554
sg30
F0.025535084350754092
sg31
I197091
sg32
I1737629
sg33
F0.7644543353717891
sg34
I880290
sg35
F0.21621621621621623
sg36
F0.0
ssS'HUMPHREY GENE E'
p63
(dp64
g3
I128
sg4
I2964506
sg6
I4994
sg7
I00
sg8
g5
sg9
S'gene.humphrey@enron.com'
p65
sg11
I10
sg12
F0.078125
sg13
g5
sg14
F0.02119720928198062
sg15
F0.0
sg16
g5
sg17
I119
sg18
g5
sg19
I17
sg20
g5
sg21
g5
sg22
F0.005017748054557809
sg23
g5
sg24
I2282768
sg25
F0.08575031525851198
sg26
F0.11725713709543105
sg27
I17
sg28
F0.0
sg29
g5
sg30
F0.06636996445984913
sg31
I130724
sg32
I3100224
sg33
F0.7644543353717891
sg34
I2282768
sg35
F1.0
sg36
F0.0
ssS'NOLES JAMES L'
p66
(dp67
g3
g5
sg4
I774401
sg6
g5
sg7
I00
sg8
g5
sg9
g5
sg11
g5
sg12
F0.0
sg13
g5
sg14
F0.20295912341709862
sg15
F0.0
sg16
I-94556
sg17
g5
sg18
g5
sg19
g5
sg20
g5
sg21
g5
sg22
F0.005017748054557809
sg23
g5
sg24
I368705
sg25
F0.08575031525851198
sg26
F0.23250667773395478
sg27
g5
sg28
F0.0
sg29
I463261
sg30
F0.03766953765368387
sg31
g5
sg32
I774401
sg33
F0.7644543353717891
sg34
g5
sg35
F0.0
sg36
F0.0
ssS'BLACHMAN JEREMY M'
p68
(dp69
g3
I2475
sg4
g5
sg6
I84208
sg7
I00
sg8
I831809
sg9
S'jeremy.blachman@enron.com'
p70
sg11
I25
sg12
F0.010101010101010102
sg13
g5
sg14
F0.367692408634604
sg15
F0.0
sg16
g5
sg17
I2326
sg18
g5
sg19
I14
sg20
I272
sg21
g5
sg22
F2.6062462842891514e-05
sg23
I850000
sg24
I954354
sg25
F0.09836065573770493
sg26
F0.2233284508827573
sg27
I2
sg28
F0.0
sg29
I189041
sg30
F0.02218738691072051
sg31
I248546
sg32
I2014835
sg33
F0.7644543353717891
sg34
I765313
sg35
F0.14285714285714285
sg36
F0.0
ssS'SUNDE MARTIN'
p71
(dp72
g3
I2647
sg4
g5
sg6
g5
sg7
I00
sg8
I476451
sg9
S'marty.sunde@enron.com'
p73
sg11
I37
sg12
F0.013978088401964487
sg13
g5
sg14
F0.20295912341709862
sg15
F0.0
sg16
g5
sg17
I2565
sg18
g5
sg19
I38
sg20
I111122
sg21
g5
sg22
F0.010726151374452242
sg23
I700000
sg24
I698920
sg25
F0.07944514501891552
sg26
F0.231376842059776
sg27
I13
sg28
F0.0
sg29
I698920
sg30
F0.03766953765368387
sg31
I257486
sg32
I1545059
sg33
F0.7644543353717891
sg34
g5
sg35
F0.34210526315789475
sg36
F0.0
ssS'GIBBS DANA R'
p74
(dp75
g3
I169
sg4
I504610
sg6
g5
sg7
I00
sg8
I461912
sg9
S'dana.gibbs@enron.com'
p76
sg11
I0
sg12
F0.0
sg13
g5
sg14
F0.20295912341709862
sg15
F0.0
sg16
g5
sg17
I23
sg18
g5
sg19
I12
sg20
g5
sg21
g5
sg22
F0.005017748054557809
sg23
g5
sg24
I2218275
sg25
F0.08575031525851198
sg26
F0.23250667773395478
sg27
I0
sg28
F0.0
sg29
g5
sg30
F0.06449217106638708
sg31
g5
sg32
I966522
sg33
F0.7644543353717891
sg34
I2218275
sg35
F0.0
sg36
F0.0
ssS'LOWRY CHARLES P'
p77
(dp78
g3
g5
sg4
g5
sg6
g5
sg7
I00
sg8
g5
sg9
g5
sg11
g5
sg12
F0.0
sg13
g5
sg14
F0.20295912341709862
sg15
F0.0
sg16
I-153686
sg17
g5
sg18
g5
sg19
g5
sg20
g5
sg21
g5
sg22
F0.005017748054557809
sg23
g5
sg24
I372205
sg25
F0.08575031525851198
sg26
F0.23250667773395478
sg27
g5
sg28
F0.0
sg29
I153686
sg30
F0.01074156169996773
sg31
g5
sg32
g5
sg33
F0.7644543353717891
sg34
I372205
sg35
F0.0
sg36
F0.0
ssS'COLWELL WESLEY'
p79
(dp80
g3
I1758
sg4
I27610
sg6
I16514
sg7
I01
sg8
g5
sg9
S'wes.colwell@enron.com'
p81
sg11
I240
sg12
F0.13651877133105803
sg13
I-144062
sg14
F0.07158760361306125
sg15
F0.0
sg16
g5
sg17
I1132
sg18
g5
sg19
I40
sg20
I101740
sg21
g5
sg22
F0.00982052905448184
sg23
I1200000
sg24
I698242
sg25
F0.14249684741488022
sg26
F0.2593355485914865
sg27
I11
sg28
F0.0
sg29
I698242
sg30
F0.03766953765368387
sg31
I288542
sg32
I1490344
sg33
F0.7644543353717891
sg34
g5
sg35
F0.275
sg36
F0.0
ssS'MULLER MARK S'
p82
(dp83
g3
I136
sg4
I842924
sg6
g5
sg7
I00
sg8
I1725545
sg9
S's..muller@enron.com'
p84
sg11
I12
sg12
F0.08823529411764706
sg13
I-719000
sg14
F0.20295912341709862
sg15
F0.0
sg16
g5
sg17
I114
sg18
g5
sg19
I16
sg20
I947
sg21
g5
sg22
F9.12186199501203e-05
sg23
I1100000
sg24
I1416848
sg25
F0.12988650693568726
sg26
F0.22612648217785505
sg27
I0
sg28
F0.0
sg29
I360528
sg30
F0.03066041533320373
sg31
I251654
sg32
I3202070
sg33
F0.7644543353717891
sg34
I1056320
sg35
F0.0
sg36
F0.0
ssS'JACKSON CHARLENE R'
p85
(dp86
g3
I258
sg4
g5
sg6
I10181
sg7
I00
sg8
g5
sg9
S'charlene.jackson@enron.com'
p87
sg11
I25
sg12
F0.09689922480620156
sg13
g5
sg14
F0.04388600922949063
sg15
F0.0
sg16
g5
sg17
I117
sg18
g5
sg19
I56
sg20
I2435
sg21
g5
sg22
F0.00023485174850650022
sg23
I250000
sg24
I725735
sg25
F0.02269861286254729
sg26
F0.259349952870998
sg27
I19
sg28
F0.0
sg29
I540672
sg30
F0.005292691105650911
sg31
I288558
sg32
I551174
sg33
F0.7644543353717891
sg34
I185063
sg35
F0.3392857142857143
sg36
F0.0
ssS'WESTFAHL RICHARD K'
p88
(dp89
g3
g5
sg4
g5
sg6
I51870
sg7
I00
sg8
I256191
sg9
S'dick.westfahl@enron.com'
p90
sg11
g5
sg12
F0.0
sg13
I-10800
sg14
F0.22624062288126326
sg15
F0.0
sg16
g5
sg17
g5
sg18
g5
sg19
g5
sg20
I401130
sg21
g5
sg22
F0.03871993924164217
sg23
g5
sg24
I384930
sg25
F0.08575031525851198
sg26
F0.05695722199065342
sg27
g5
sg28
F0.0
sg29
I384930
sg30
F0.03766953765368387
sg31
I63744
sg32
I762135
sg33
F0.7644543353717891
sg34
g5
sg35
F0.0
sg36
F0.0
ssS'WALTERS GARETH W'
p91
(dp92
g3
g5
sg4
I53625
sg6
I33785
sg7
I00
sg8
g5
sg9
g5
sg11
g5
sg12
F0.0
sg13
g5
sg14
F0.14713382761411106
sg15
F0.0
sg16
g5
sg17
g5
sg18
g5
sg19
g5
sg20
g5
sg21
g5
sg22
F0.005017748054557809
sg23
g5
sg24
I1030329
sg25
F0.08575031525851198
sg26
F0.23250667773395478
sg27
g5
sg28
F0.0
sg29
g5
sg30
F0.02990365524932684
sg31
g5
sg32
I87410
sg33
F0.7644543353717891
sg34
I1030329
sg35
F0.0
sg36
F0.0
ssS'WALLS JR ROBERT H'
p93
(dp94
g3
I671
sg4
g5
sg6
I50936
sg7
I00
sg8
I540751
sg9
S'rob.walls@enron.com'
p95
sg11
I17
sg12
F0.02533532041728763
sg13
g5
sg14
F0.2221551516742121
sg15
F0.0
sg16
g5
sg17
I215
sg18
g5
sg19
I146
sg20
I2
sg21
g5
sg22
F0.0
sg23
I850000
sg24
I5898997
sg25
F0.09836065573770493
sg26
F0.32104798335585505
sg27
I0
sg28
F0.0
sg29
I1552453
sg30
F0.12645935305063466
sg31
I357091
sg32
I1798780
sg33
F0.7644543353717891
sg34
I4346544
sg35
F0.0
sg36
F0.0
ssS'KITCHEN LOUISE'
p96
(dp97
g3
I8305
sg4
g5
sg6
I5774
sg7
I00
sg8
g5
sg9
S'louise.kitchen@enron.com'
p98
sg11
I251
sg12
F0.030222757375075255
sg13
g5
sg14
F0.02460905889814754
sg15
F0.05555555555555555
sg16
g5
sg17
I3669
sg18
g5
sg19
I1728
sg20
I93925
sg21
g5
sg22
F0.00906616554664037
sg23
I3100000
sg24
I547143
sg25
F0.38209331651954603
sg26
F0.243940974863632
sg27
I194
sg28
F0.5
sg29
I466101
sg30
F0.002263991144704518
sg31
I271442
sg32
I3471141
sg33
F0.7644543353717891
sg34
I81042
sg35
F0.11226851851851852
sg36
F1.0
ssS'CHAN RONNIE'
p99
(dp100
g3
g5
sg4
g5
sg6
g5
sg7
I00
sg8
g5
sg9
g5
sg11
g5
sg12
F0.0
sg13
I-98784
sg14
F0.20295912341709862
sg15
F0.0
sg16
I-32460
sg17
g5
sg18
g5
sg19
g5
sg20
g5
sg21
I98784
sg22
F0.005017748054557809
sg23
g5
sg24
g5
sg25
F0.08575031525851198
sg26
F0.23250667773395478
sg27
g5
sg28
F0.0
sg29
I32460
sg30
F0.03766953765368387
sg31
g5
sg32
g5
sg33
F0.7096129410977939
sg34
g5
sg35
F0.0
sg36
F0.0
ssS'BELFER ROBERT'
p101
(dp102
g3
g5
sg4
I-102500
sg6
g5
sg7
I00
sg8
g5
sg9
g5
sg11
g5
sg12
F0.0
sg13
g5
sg14
F0.20295912341709862
sg15
F0.0
sg16
I44093
sg17
g5
sg18
g5
sg19
g5
sg20
g5
sg21
I3285
sg22
F0.005017748054557809
sg23
g5
sg24
I-44093
sg25
F0.08575031525851198
sg26
F0.23250667773395478
sg27
g5
sg28
F0.0
sg29
g5
sg30
F0.0
sg31
g5
sg32
I102500
sg33
F0.0
sg34
I3285
sg35
F0.0
sg36
F0.0
ssS'SHANKMAN JEFFREY A'
p103
(dp104
g3
I3221
sg4
g5
sg6
I178979
sg7
I00
sg8
I554422
sg9
S'jeffrey.shankman@enron.com'
p105
sg11
I94
sg12
F0.029183483390251473
sg13
g5
sg14
F0.7822365111650591
sg15
F0.05555555555555555
sg16
g5
sg17
I1730
sg18
g5
sg19
I2681
sg20
I1191
sg21
g5
sg22
F0.00011477136414888152
sg23
I2000000
sg24
I2072035
sg25
F0.24337957124842372
sg26
F0.27335091255612043
sg27
I83
sg28
F0.5
sg29
I630137
sg30
F0.041886995288614545
sg31
I304110
sg32
I3038702
sg33
F0.7644543353717891
sg34
I1441898
sg35
F0.030958597538232
sg36
F1.0
ssS'WODRASKA JOHN'
p106
(dp107
g3
g5
sg4
g5
sg6
g5
sg7
I00
sg8
g5
sg9
S'john.wodraska@enron.com'
p108
sg11
g5
sg12
F0.0
sg13
g5
sg14
F0.20295912341709862
sg15
F0.0
sg16
g5
sg17
g5
sg18
g5
sg19
g5
sg20
I189583
sg21
g5
sg22
F0.018299806548956358
sg23
g5
sg24
g5
sg25
F0.08575031525851198
sg26
F0.23250667773395478
sg27
g5
sg28
F0.0
sg29
g5
sg30
F0.03766953765368387
sg31
g5
sg32
I189583
sg33
F0.7644543353717891
sg34
g5
sg35
F0.0
sg36
F0.0
ssS'BERGSIEKER RICHARD P'
p109
(dp110
g3
I383
sg4
g5
sg6
I59175
sg7
I00
sg8
I180250
sg9
S'rick.bergsieker@enron.com'
p111
sg11
I4
sg12
F0.010443864229765013
sg13
I-485813
sg14
F0.2581939067865188
sg15
F0.0
sg16
g5
sg17
I233
sg18
g5
sg19
I59
sg20
I427316
sg21
g5
sg22
F0.04124761202684202
sg23
I250000
sg24
I659249
sg25
F0.02269861286254729
sg26
F0.16875063581390032
sg27
I0
sg28
F0.0
sg29
I659249
sg30
F0.03766953765368387
sg31
I187922
sg32
I618850
sg33
F0.7644543353717891
sg34
g5
sg35
F0.0
sg36
F0.0
ssS'URQUHART JOHN A'
p112
(dp113
g3
g5
sg4
g5
sg6
I228656
sg7
I00
sg8
g5
sg9
g5
sg11
g5
sg12
F0.0
sg13
I-36666
sg14
F0.9995319642193206
sg15
F0.0
sg16
g5
sg17
g5
sg18
g5
sg19
g5
sg20
g5
sg21
I36666
sg22
F0.005017748054557809
sg23
g5
sg24
g5
sg25
F0.08575031525851198
sg26
F0.23250667773395478
sg27
g5
sg28
F0.0
sg29
g5
sg30
F0.03766953765368387
sg31
g5
sg32
I228656
sg33
F0.24804018457560245
sg34
g5
sg35
F0.0
sg36
F0.0
ssS'BIBI PHILIPPE A'
p114
(dp115
g3
I1607
sg4
g5
sg6
I38559
sg7
I00
sg8
I369721
sg9
S'philippe.bibi@enron.com'
p116
sg11
I23
sg12
F0.01431238332296204
sg13
g5
sg14
F0.16801609693152245
sg15
F0.0
sg16
g5
sg17
I1336
sg18
g5
sg19
I40
sg20
I425688
sg21
g5
sg22
F0.0410904650286634
sg23
I1000000
sg24
I1843816
sg25
F0.11727616645649433
sg26
F0.1918902105815638
sg27
I8
sg28
F0.0
sg29
I378082
sg30
F0.042581009884408834
sg31
I213625
sg32
I2047593
sg33
F0.7644543353717891
sg34
I1465734
sg35
F0.2
sg36
F0.0
ssS'RIEKER PAULA H'
p117
(dp118
g3
I1328
sg4
I214678
sg6
I33271
sg7
I01
sg8
g5
sg9
S'paula.rieker@enron.com'
p119
sg11
I35
sg12
F0.02635542168674699
sg13
I-100000
sg14
F0.14488550620038057
sg15
F0.1111111111111111
sg16
g5
sg17
I1258
sg18
g5
sg19
I82
sg20
I1950
sg21
g5
sg22
F0.00018803584302945435
sg23
I700000
sg24
I1918887
sg25
F0.07944514501891552
sg26
F0.223918126075257
sg27
I48
sg28
F0.5
sg29
I283649
sg30
F0.047516328312228774
sg31
I249201
sg32
I1099100
sg33
F0.7644543353717891
sg34
I1635238
sg35
F0.5853658536585366
sg36
F1.0
ssS'WHALEY DAVID A'
p120
(dp121
g3
g5
sg4
g5
sg6
g5
sg7
I00
sg8
g5
sg9
g5
sg11
g5
sg12
F0.0
sg13
g5
sg14
F0.20295912341709862
sg15
F0.0
sg16
g5
sg17
g5
sg18
g5
sg19
g5
sg20
g5
sg21
g5
sg22
F0.005017748054557809
sg23
g5
sg24
I98718
sg25
F0.08575031525851198
sg26
F0.23250667773395478
sg27
g5
sg28
F0.0
sg29
g5
sg30
F0.0027786497281606323
sg31
g5
sg32
g5
sg33
F0.7644543353717891
sg34
I98718
sg35
F0.0
sg36
F0.0
ssS'BECK SALLY W'
p122
(dp123
g3
I7315
sg4
g5
sg6
I37172
sg7
I00
sg8
g5
sg9
S'sally.beck@enron.com'
p124
sg11
I144
sg12
F0.01968557758031442
sg13
g5
sg14
F0.16194912844738973
sg15
F0.05555555555555555
sg16
g5
sg17
I2639
sg18
g5
sg19
I4343
sg20
I566
sg21
g5
sg22
F5.444158904959561e-05
sg23
I700000
sg24
I126027
sg25
F0.07944514501891552
sg26
F0.20782944612844478
sg27
I386
sg28
F1.0
sg29
I126027
sg30
F0.03766953765368387
sg31
I231330
sg32
I969068
sg33
F0.7644543353717891
sg34
g5
sg35
F0.08887865530739121
sg36
F2.0
ssS'HAUG DAVID L'
p125
(dp126
g3
I573
sg4
g5
sg6
I475
sg7
I00
sg8
g5
sg9
S'david.haug@enron.com'
p127
sg11
I4
sg12
F0.006980802792321117
sg13
g5
sg14
F0.001430352339085362
sg15
F0.0
sg16
g5
sg17
I471
sg18
g5
sg19
I19
sg20
g5
sg21
g5
sg22
F0.005017748054557809
sg23
g5
sg24
I2217299
sg25
F0.08575031525851198
sg26
F0.23250667773395478
sg27
I7
sg28
F0.0
sg29
I2217299
sg30
F0.03766953765368387
sg31
g5
sg32
I475
sg33
F0.7644543353717891
sg34
g5
sg35
F0.3684210526315789
sg36
F0.0
ssS'ECHOLS JOHN B'
p128
(dp129
g3
g5
sg4
g5
sg6
I21530
sg7
I00
sg8
I2234774
sg9
S'john.echols@enron.com'
p130
sg11
g5
sg12
F0.0
sg13
g5
sg14
F0.09352842114471928
sg15
F0.0
sg16
g5
sg17
g5
sg18
g5
sg19
g5
sg20
I53775
sg21
g5
sg22
F0.005190580794262242
sg23
I200000
sg24
I1008941
sg25
F0.016393442622950817
sg26
F0.1636398173897465
sg27
g5
sg28
F0.0
sg29
I407503
sg30
F0.017415963774045317
sg31
I182245
sg32
I2692324
sg33
F0.7644543353717891
sg34
I601438
sg35
F0.0
sg36
F0.0
ssS'MENDELSOHN JOHN'
p131
(dp132
g3
g5
sg4
g5
sg6
I148
sg7
I00
sg8
g5
sg9
g5
sg11
g5
sg12
F0.0
sg13
I-103750
sg14
F0.0
sg15
F0.0
sg16
g5
sg17
g5
sg18
g5
sg19
g5
sg20
g5
sg21
I103750
sg22
F0.005017748054557809
sg23
g5
sg24
g5
sg25
F0.08575031525851198
sg26
F0.23250667773395478
sg27
g5
sg28
F0.0
sg29
g5
sg30
F0.03766953765368387
sg31
g5
sg32
I148
sg33
F0.7465132004250292
sg34
g5
sg35
F0.0
sg36
F0.0
ssS'HICKERSON GARY J'
p133
(dp134
g3
I1320
sg4
g5
sg6
I98849
sg7
I00
sg8
I69223
sg9
S'gary.hickerson@enron.com'
p135
sg11
I40
sg12
F0.030303030303030304
sg13
g5
sg14
F0.4317345755965269
sg15
F0.0
sg16
g5
sg17
I900
sg18
g5
sg19
I27
sg20
I1936
sg21
g5
sg22
F0.00018668445606723034
sg23
I1700000
sg24
I441096
sg25
F0.20554854981084492
sg26
F0.19023641924015627
sg27
I1
sg28
F0.0
sg29
I441096
sg30
F0.03766953765368387
sg31
I211788
sg32
I2081796
sg33
F0.7644543353717891
sg34
g5
sg35
F0.037037037037037035
sg36
F0.0
ssS'CLINE KENNETH W'
p136
(dp137
g3
g5
sg4
g5
sg6
g5
sg7
I00
sg8
g5
sg9
g5
sg11
g5
sg12
F0.0
sg13
g5
sg14
F0.20295912341709862
sg15
F0.0
sg16
I-472568
sg17
g5
sg18
g5
sg19
g5
sg20
g5
sg21
g5
sg22
F0.005017748054557809
sg23
g5
sg24
I189518
sg25
F0.08575031525851198
sg26
F0.23250667773395478
sg27
g5
sg28
F0.0
sg29
I662086
sg30
F0.03766953765368387
sg31
g5
sg32
g5
sg33
F0.7644543353717891
sg34
g5
sg35
F0.0
sg36
F0.0
ssS'LEWIS RICHARD'
p138
(dp139
g3
I952
sg4
g5
sg6
g5
sg7
I00
sg8
g5
sg9
S'richard.lewis@enron.com'
p140
sg11
I10
sg12
F0.01050420168067227
sg13
g5
sg14
F0.20295912341709862
sg15
F0.0
sg16
g5
sg17
I739
sg18
g5
sg19
I26
sg20
g5
sg21
g5
sg22
F0.005017748054557809
sg23
g5
sg24
I850477
sg25
F0.08575031525851198
sg26
F0.23250667773395478
sg27
I0
sg28
F0.0
sg29
g5
sg30
F0.02466704201376738
sg31
g5
sg32
g5
sg33
F0.7644543353717891
sg34
I850477
sg35
F0.0
sg36
F0.0
ssS'HAYES ROBERT E'
p141
(dp142
g3
I504
sg4
I7961
sg6
g5
sg7
I00
sg8
g5
sg9
S'robert.hayes@enron.com'
p143
sg11
I16
sg12
F0.031746031746031744
sg13
g5
sg14
F0.20295912341709862
sg15
F0.0
sg16
g5
sg17
I50
sg18
g5
sg19
I12
sg20
g5
sg21
g5
sg22
F0.005017748054557809
sg23
g5
sg24
I151418
sg25
F0.08575031525851198
sg26
F0.23250667773395478
sg27
I0
sg28
F0.0
sg29
I151418
sg30
F0.03766953765368387
sg31
g5
sg32
I7961
sg33
F0.7644543353717891
sg34
g5
sg35
F0.0
sg36
F0.0
ssS'KOPPER MICHAEL J'
p144
(dp145
g3
g5
sg4
g5
sg6
I118134
sg7
I01
sg8
I602671
sg9
S'michael.kopper@enron.com'
p146
sg11
g5
sg12
F0.0
sg13
g5
sg14
F0.5160903702731666
sg15
F0.0
sg16
g5
sg17
g5
sg18
g5
sg19
g5
sg20
I907502
sg21
g5
sg22
F0.08759883344416315
sg23
I800000
sg24
I985032
sg25
F0.09205548549810845
sg26
F0.2015050671554519
sg27
g5
sg28
F0.0
sg29
I985032
sg30
F0.03766953765368387
sg31
I224305
sg32
I2652612
sg33
F0.7644543353717891
sg34
g5
sg35
F0.0
sg36
F0.0
ssS'LEFF DANIEL P'
p147
(dp148
g3
I2822
sg4
g5
sg6
g5
sg7
I00
sg8
I1387399
sg9
S'dan.leff@enron.com'
p149
sg11
I67
sg12
F0.02374202693125443
sg13
g5
sg14
F0.20295912341709862
sg15
F0.05555555555555555
sg16
g5
sg17
I2672
sg18
g5
sg19
I63
sg20
I3083
sg21
g5
sg22
F0.0002974016593294399
sg23
I1000000
sg24
I360528
sg25
F0.11727616645649433
sg26
F0.24601519111327977
sg27
I14
sg28
F0.5
sg29
I360528
sg30
F0.03766953765368387
sg31
I273746
sg32
I2664228
sg33
F0.7644543353717891
sg34
g5
sg35
F0.2222222222222222
sg36
F1.0
ssS'LAVORATO JOHN J'
p150
(dp151
g3
I7259
sg4
g5
sg6
I49537
sg7
I00
sg8
I2035380
sg9
S'john.lavorato@enron.com'
p152
sg11
I528
sg12
F0.07273729163796666
sg13
g5
sg14
F0.2160356931959845
sg15
F0.05555555555555555
sg16
g5
sg17
I3962
sg18
g5
sg19
I2585
sg20
I1552
sg21
g5
sg22
F0.0001496178422462291
sg23
I8000000
sg24
I5167144
sg25
F1.0
sg26
F0.30502052159696647
sg27
I411
sg28
F0.5
sg29
I1008149
sg30
F0.12099863214835979
sg31
I339288
sg32
I10425757
sg33
F0.7644543353717891
sg34
I4158995
sg35
F0.15899419729206962
sg36
F1.0
ssS'BERBERIAN DAVID'
p153
(dp154
g3
g5
sg4
g5
sg6
I11892
sg7
I00
sg8
g5
sg9
S'david.berberian@enron.com'
p155
sg11
g5
sg12
F0.0
sg13
g5
sg14
F0.051370207554184984
sg15
F0.0
sg16
g5
sg17
g5
sg18
g5
sg19
g5
sg20
g5
sg21
g5
sg22
F0.005017748054557809
sg23
g5
sg24
I2493616
sg25
F0.08575031525851198
sg26
F0.19455230148877234
sg27
g5
sg28
F0.0
sg29
I869220
sg30
F0.04720065008401927
sg31
I216582
sg32
I228474
sg33
F0.7644543353717891
sg34
I1624396
sg35
F0.0
sg36
F0.0
ssS'DETMERING TIMOTHY J'
p156
(dp157
g3
g5
sg4
I875307
sg6
I52255
sg7
I00
sg8
I415657
sg9
S'timothy.detmering@enron.com'
p158
sg11
g5
sg12
F0.0
sg13
I-775241
sg14
F0.22792467685847387
sg15
F0.0
sg16
I-315068
sg17
g5
sg18
g5
sg19
g5
sg20
I1105
sg21
g5
sg22
F0.00010646998709521977
sg23
I425000
sg24
I2027865
sg25
F0.04476670870113494
sg26
F0.18907687473948512
sg27
g5
sg28
F0.0
sg29
I315068
sg30
F0.05894814861357657
sg31
I210500
sg32
I1204583
sg33
F0.7644543353717891
sg34
I2027865
sg35
F0.0
sg36
F0.0
ssS'WAKEHAM JOHN'
p159
(dp160
g3
g5
sg4
g5
sg6
I103773
sg7
I00
sg8
g5
sg9
g5
sg11
g5
sg12
F0.0
sg13
g5
sg14
F0.4532729698401242
sg15
F0.0
sg16
g5
sg17
g5
sg18
g5
sg19
g5
sg20
g5
sg21
I109298
sg22
F0.005017748054557809
sg23
g5
sg24
g5
sg25
F0.08575031525851198
sg26
F0.23250667773395478
sg27
g5
sg28
F0.0
sg29
g5
sg30
F0.03766953765368387
sg31
g5
sg32
I213071
sg33
F0.7877380572006034
sg34
g5
sg35
F0.0
sg36
F0.0
ssS'POWERS WILLIAM'
p161
(dp162
g3
I653
sg4
g5
sg6
g5
sg7
I00
sg8
g5
sg9
S'ken.powers@enron.com'
p163
sg11
I0
sg12
F0.0
sg13
I-17500
sg14
F0.20295912341709862
sg15
F0.0
sg16
g5
sg17
I12
sg18
g5
sg19
I26
sg20
g5
sg21
I17500
sg22
F0.005017748054557809
sg23
g5
sg24
g5
sg25
F0.08575031525851198
sg26
F0.23250667773395478
sg27
I0
sg28
F0.0
sg29
g5
sg30
F0.03766953765368387
sg31
g5
sg32
g5
sg33
F0.10562569197274464
sg34
g5
sg35
F0.0
sg36
F0.0
ssS'GOLD JOSEPH'
p164
(dp165
g3
g5
sg4
g5
sg6
g5
sg7
I00
sg8
I304805
sg9
S'joe.gold@enron.com'
p166
sg11
g5
sg12
F0.0
sg13
g5
sg14
F0.20295912341709862
sg15
F0.0
sg16
g5
sg17
g5
sg18
g5
sg19
g5
sg20
I819288
sg21
g5
sg22
F0.0790837441951897
sg23
I750000
sg24
I877611
sg25
F0.08575031525851198
sg26
F0.24523555948472292
sg27
g5
sg28
F0.0
sg29
I441096
sg30
F0.012614026822284017
sg31
I272880
sg32
I2146973
sg33
F0.7644543353717891
sg34
I436515
sg35
F0.0
sg36
F0.0
ssS'BANNANTINE JAMES M'
p167
(dp168
g3
I566
sg4
g5
sg6
I56301
sg7
I00
sg8
g5
sg9
S'james.bannantine@enron.com'
p169
sg11
I39
sg12
F0.06890459363957598
sg13
I-5104
sg14
F0.2456225532007961
sg15
F0.0
sg16
I-560222
sg17
I465
sg18
g5
sg19
I29
sg20
I864523
sg21
g5
sg22
F0.08345017199777562
sg23
g5
sg24
I5243487
sg25
F0.08575031525851198
sg26
F0.0
sg27
I0
sg28
F0.0
sg29
I1757552
sg30
F0.11771321433663649
sg31
I477
sg32
I916197
sg33
F0.7644543353717891
sg34
I4046157
sg35
F0.0
sg36
F0.0
ssS'DUNCAN JOHN H'
p170
(dp171
g3
g5
sg4
g5
sg6
g5
sg7
I00
sg8
g5
sg9
g5
sg11
g5
sg12
F0.0
sg13
I-25000
sg14
F0.20295912341709862
sg15
F0.0
sg16
g5
sg17
g5
sg18
g5
sg19
g5
sg20
g5
sg21
I102492
sg22
F0.005017748054557809
sg23
g5
sg24
I371750
sg25
F0.08575031525851198
sg26
F0.23250667773395478
sg27
g5
sg28
F0.0
sg29
g5
sg30
F0.010728313812692751
sg31
g5
sg32
I77492
sg33
F0.737165531026386
sg34
I371750
sg35
F0.0
sg36
F0.0
ssS'SHAPIRO RICHARD S'
p172
(dp173
g3
I15149
sg4
g5
sg6
I137767
sg7
I00
sg8
g5
sg9
S'richard.shapiro@enron.com'
p174
sg11
I74
sg12
F0.0048848108786058485
sg13
g5
sg14
F0.6019683747785578
sg15
F0.0
sg16
g5
sg17
I4527
sg18
g5
sg19
I1215
sg20
I705
sg21
g5
sg22
F6.785893103167679e-05
sg23
I650000
sg24
I987001
sg25
F0.07313997477931905
sg26
F0.24181094203087738
sg27
I65
sg28
F0.0
sg29
I379164
sg30
F0.017602278566732334
sg31
I269076
sg32
I1057548
sg33
F0.7644543353717891
sg34
I607837
sg35
F0.053497942386831275
sg36
F0.0
ssS'SHERRIFF JOHN R'
p175
(dp176
g3
I3187
sg4
g5
sg6
g5
sg7
I00
sg8
I554422
sg9
S'john.sherriff@enron.com'
p177
sg11
I28
sg12
F0.008785691873235017
sg13
g5
sg14
F0.20295912341709862
sg15
F0.0
sg16
g5
sg17
I2103
sg18
g5
sg19
I92
sg20
I1852186
sg21
g5
sg22
F0.17878695065999325
sg23
I1500000
sg24
I3128982
sg25
F0.18032786885245902
sg26
F0.3855872579743442
sg27
I23
sg28
F0.0
sg29
I1293424
sg30
F0.05334889266151191
sg31
I428780
sg32
I4335388
sg33
F0.7644543353717891
sg34
I1835558
sg35
F0.25
sg36
F0.0
ssS'SHELBY REX'
p178
(dp179
g3
I225
sg4
g5
sg6
I22884
sg7
I01
sg8
g5
sg9
S'rex.shelby@enron.com'
p180
sg11
I13
sg12
F0.057777777777777775
sg13
I-4167
sg14
F0.09945104214509108
sg15
F0.1111111111111111
sg16
g5
sg17
I91
sg18
g5
sg19
I39
sg20
I1573324
sg21
g5
sg22
F0.15186905987001395
sg23
I200000
sg24
I2493616
sg25
F0.016393442622950817
sg26
F0.19028683421844633
sg27
I14
sg28
F0.5
sg29
I869220
sg30
F0.04720065008401927
sg31
I211844
sg32
I2003885
sg33
F0.7644543353717891
sg34
I1624396
sg35
F0.358974358974359
sg36
F1.0
ssS'LEMAISTRE CHARLES'
p181
(dp182
g3
g5
sg4
g5
sg6
g5
sg7
I00
sg8
g5
sg9
g5
sg11
g5
sg12
F0.0
sg13
I-25000
sg14
F0.20295912341709862
sg15
F0.0
sg16
g5
sg17
g5
sg18
g5
sg19
g5
sg20
g5
sg21
I112492
sg22
F0.005017748054557809
sg23
g5
sg24
I412878
sg25
F0.08575031525851198
sg26
F0.23250667773395478
sg27
g5
sg28
F0.0
sg29
g5
sg30
F0.011925806357407791
sg31
g5
sg32
I87492
sg33
F0.8114713291078103
sg34
I412878
sg35
F0.0
sg36
F0.0
ssS'DEFFNER JOSEPH M'
p183
(dp184
g3
I714
sg4
g5
sg6
I41626
sg7
I00
sg8
I335349
sg9
S'joseph.deffner@enron.com'
p185
sg11
I115
sg12
F0.16106442577030813
sg13
g5
sg14
F0.18143166458893775
sg15
F0.0
sg16
g5
sg17
I552
sg18
g5
sg19
I74
sg20
I25553
sg21
g5
sg22
F0.002466377733698967
sg23
I600000
sg24
I159211
sg25
F0.06683480453972258
sg26
F0.1851346034906971
sg27
I4
sg28
F0.0
sg29
I141833
sg30
F0.00041033511069512424
sg31
I206121
sg32
I1208649
sg33
F0.7644543353717891
sg34
I17378
sg35
F0.05405405405405406
sg36
F0.0
ssS'KISHKILL JOSEPH G'
p186
(dp187
g3
g5
sg4
g5
sg6
I116335
sg7
I00
sg8
g5
sg9
S'joe.kishkill@enron.com'
p188
sg11
g5
sg12
F0.0
sg13
I-51042
sg14
F0.5082212453251098
sg15
F0.0
sg16
g5
sg17
g5
sg18
g5
sg19
g5
sg20
I465357
sg21
g5
sg22
F0.04491961998612511
sg23
g5
sg24
I1034346
sg25
F0.08575031525851198
sg26
F0.15643857790149454
sg27
g5
sg28
F0.0
sg29
I1034346
sg30
F0.03766953765368387
sg31
I174246
sg32
I704896
sg33
F0.7644543353717891
sg34
g5
sg35
F0.0
sg36
F0.0
ssS'WHALLEY LAWRENCE G'
p189
(dp190
g3
I6019
sg4
g5
sg6
I57838
sg7
I00
sg8
I808346
sg9
S'greg.whalley@enron.com'
p191
sg11
I186
sg12
F0.03090214321315833
sg13
g5
sg14
F0.25234564661111475
sg15
F0.0
sg16
g5
sg17
I3920
sg18
g5
sg19
I556
sg20
I301026
sg21
g5
sg22
F0.02905713635117991
sg23
I3000000
sg24
I6079137
sg25
F0.3694829760403531
sg26
F0.45903467920319124
sg27
I24
sg28
F0.0
sg29
I2796177
sg30
F0.09549179054630182
sg31
I510364
sg32
I4677574
sg33
F0.7644543353717891
sg34
I3282960
sg35
F0.04316546762589928
sg36
F0.0
ssS'PIRO JIM'
p192
(dp193
g3
I58
sg4
g5
sg6
g5
sg7
I00
sg8
g5
sg9
S'jim.piro@enron.com'
p194
sg11
I0
sg12
F0.0
sg13
g5
sg14
F0.20295912341709862
sg15
F0.0
sg16
g5
sg17
I3
sg18
g5
sg19
I16
sg20
g5
sg21
g5
sg22
F0.005017748054557809
sg23
g5
sg24
I47304
sg25
F0.08575031525851198
sg26
F0.23250667773395478
sg27
I1
sg28
F0.0
sg29
I47304
sg30
F0.03766953765368387
sg31
g5
sg32
g5
sg33
F0.7644543353717891
sg34
g5
sg35
F0.0625
sg36
F0.0
ssS'MCCONNELL MICHAEL S'
p195
(dp196
g3
I3329
sg4
g5
sg6
I81364
sg7
I00
sg8
I554422
sg9
S'mike.mcconnell@enron.com'
p197
sg11
I92
sg12
F0.02763592670471613
sg13
g5
sg14
F0.3552522800341185
sg15
F0.05555555555555555
sg16
g5
sg17
I2189
sg18
g5
sg19
I2742
sg20
I540
sg21
g5
sg22
F5.1931870405465315e-05
sg23
I1100000
sg24
I3101279
sg25
F0.12988650693568726
sg26
F0.3282024089356948
sg27
I194
sg28
F0.5
sg29
I1478269
sg30
F0.047160294981243175
sg31
I365038
sg32
I2101364
sg33
F0.7644543353717891
sg34
I1623010
sg35
F0.07075127644055434
sg36
F1.0
ssS'DELAINEY DAVID W'
p198
(dp199
g3
I3093
sg4
g5
sg6
I86174
sg7
I01
sg8
I1294981
sg9
S'david.delainey@enron.com'
p200
sg11
I66
sg12
F0.02133850630455868
sg13
g5
sg14
F0.3762920193338145
sg15
F0.3333333333333333
sg16
g5
sg17
I2097
sg18
g5
sg19
I3069
sg20
I1661
sg21
g5
sg22
F0.00016013935502354453
sg23
I3000000
sg24
I3614261
sg25
F0.3694829760403531
sg26
F0.3283149423693779
sg27
I609
sg28
F0.5833333134651184
sg29
I1323148
sg30
F0.06661293944734298
sg31
I365163
sg32
I4747979
sg33
F0.7644543353717891
sg34
I2291113
sg35
F0.198435972629521
sg36
F1.1666666269302368
ssS'SULLIVAN-SHAKLOVITZ COLLEEN'
p201
(dp202
g3
g5
sg4
I181993
sg6
g5
sg7
I00
sg8
I554422
sg9
g5
sg11
g5
sg12
F0.0
sg13
g5
sg14
F0.20295912341709862
sg15
F0.0
sg16
g5
sg17
g5
sg18
g5
sg19
g5
sg20
I162
sg21
g5
sg22
F1.5444422425417196e-05
sg23
I100000
sg24
I1362375
sg25
F0.0037831021437578806
sg26
F0.14611521082913737
sg27
g5
sg28
F0.0
sg29
g5
sg30
F0.039571584871541644
sg31
I162779
sg32
I999356
sg33
F0.7644543353717891
sg34
I1362375
sg35
F0.0
sg36
F0.0
ssS'WROBEL BRUCE'
p203
(dp204
g3
g5
sg4
g5
sg6
g5
sg7
I00
sg8
g5
sg9
g5
sg11
g5
sg12
F0.0
sg13
g5
sg14
F0.20295912341709862
sg15
F0.0
sg16
g5
sg17
g5
sg18
g5
sg19
g5
sg20
g5
sg21
g5
sg22
F0.005017748054557809
sg23
g5
sg24
I139130
sg25
F0.08575031525851198
sg26
F0.23250667773395478
sg27
g5
sg28
F0.0
sg29
g5
sg30
F0.003955295048064937
sg31
g5
sg32
g5
sg33
F0.7644543353717891
sg34
I139130
sg35
F0.0
sg36
F0.0
ssS'LINDHOLM TOD A'
p205
(dp206
g3
g5
sg4
I204075
sg6
I57727
sg7
I00
sg8
I175000
sg9
S'tod.lindholm@enron.com'
p207
sg11
g5
sg12
F0.0
sg13
g5
sg14
F0.25186011416573717
sg15
F0.0
sg16
g5
sg17
g5
sg18
g5
sg19
g5
sg20
I2630
sg21
g5
sg22
F0.0002536746383374774
sg23
I200000
sg24
I3064208
sg25
F0.016393442622950817
sg26
F0.21244511744439276
sg27
g5
sg28
F0.0
sg29
I514847
sg30
F0.07413214910226347
sg31
I236457
sg32
I875889
sg33
F0.7644543353717891
sg34
I2549361
sg35
F0.0
sg36
F0.0
ssS'MEYER JEROME J'
p208
(dp209
g3
g5
sg4
g5
sg6
I2151
sg7
I00
sg8
g5
sg9
g5
sg11
g5
sg12
F0.0
sg13
I-38346
sg14
F0.008761454847669662
sg15
F0.0
sg16
g5
sg17
g5
sg18
g5
sg19
g5
sg20
g5
sg21
I38346
sg22
F0.005017748054557809
sg23
g5
sg24
g5
sg25
F0.08575031525851198
sg26
F0.23250667773395478
sg27
g5
sg28
F0.0
sg29
g5
sg30
F0.03766953765368387
sg31
g5
sg32
I2151
sg33
F0.26052355865328175
sg34
g5
sg35
F0.0
sg36
F0.0
ssS'LAY KENNETH L'
p210
(dp211
g3
I4273
sg4
I202911
sg6
I99832
sg7
I01
sg8
I3600000
sg9
S'kenneth.lay@enron.com'
p212
sg11
I123
sg12
F0.028785396676807865
sg13
I-300000
sg14
F0.4360343809461321
sg15
F0.16666666666666666
sg16
g5
sg17
I2411
sg18
I81525000
sg19
I36
sg20
I10359729
sg21
g5
sg22
F0.9999999999999999
sg23
I7000000
sg24
I49110078
sg25
F0.8738965952080706
sg26
F0.9649462855414345
sg27
I16
sg28
F0.5
sg29
I14761694
sg30
F0.9999999999999999
sg31
I1072321
sg32
I103559793
sg33
F0.7644543353717891
sg34
I34348384
sg35
F0.4444444444444444
sg36
F1.0
ssS'BUTTS ROBERT H'
p213
(dp214
g3
g5
sg4
g5
sg6
I9410
sg7
I00
sg8
I175000
sg9
S'bob.butts@enron.com'
p215
sg11
g5
sg12
F0.0
sg13
I-75000
sg14
F0.040513527108894866
sg15
F0.0
sg16
g5
sg17
g5
sg18
g5
sg19
g5
sg20
I150656
sg21
g5
sg22
F0.014542275100492512
sg23
I750000
sg24
I417619
sg25
F0.08575031525851198
sg26
F0.23500491996172065
sg27
g5
sg28
F0.0
sg29
I417619
sg30
F0.03766953765368387
sg31
I261516
sg32
I1271582
sg33
F0.7644543353717891
sg34
g5
sg35
F0.0
sg36
F0.0
ssS'OLSON CINDY K'
p216
(dp217
g3
I1184
sg4
I77716
sg6
I63791
sg7
I00
sg8
I100000
sg9
S'cindy.olson@enron.com'
p218
sg11
I20
sg12
F0.016891891891891893
sg13
g5
sg14
F0.27838505784834766
sg15
F0.0
sg16
g5
sg17
I856
sg18
g5
sg19
I52
sg20
I972
sg21
g5
sg22
F9.363181095409173e-05
sg23
I750000
sg24
I2606763
sg25
F0.08575031525851198
sg26
F0.295828790733727
sg27
I15
sg28
F0.0
sg29
I969729
sg30
F0.04756862107167023
sg31
I329078
sg32
I1321557
sg33
F0.7644543353717891
sg34
I1637034
sg35
F0.28846153846153844
sg36
F0.0
ssS'MCDONALD REBECCA'
p219
(dp220
g3
I894
sg4
g5
sg6
g5
sg7
I00
sg8
g5
sg9
S'rebecca.mcdonald@enron.com'
p221
sg11
I54
sg12
F0.06040268456375839
sg13
g5
sg14
F0.20295912341709862
sg15
F0.0
sg16
g5
sg17
I720
sg18
g5
sg19
I13
sg20
g5
sg21
g5
sg22
F0.005017748054557809
sg23
g5
sg24
I1691366
sg25
F0.08575031525851198
sg26
F0.23250667773395478
sg27
I1
sg28
F0.0
sg29
I934065
sg30
F0.0219541076297378
sg31
g5
sg32
g5
sg33
F0.7644543353717891
sg34
I757301
sg35
F0.07692307692307693
sg36
F0.0
ssS'CUMBERLAND MICHAEL S'
p222
(dp223
g3
g5
sg4
g5
sg6
I22344
sg7
I00
sg8
I275000
sg9
g5
sg11
g5
sg12
F0.0
sg13
g5
sg14
F0.09708899241082168
sg15
F0.0
sg16
g5
sg17
g5
sg18
g5
sg19
g5
sg20
I713
sg21
g5
sg22
F6.863115215294764e-05
sg23
I325000
sg24
I207940
sg25
F0.032156368221942
sg26
F0.16602912725370708
sg27
g5
sg28
F0.0
sg29
I207940
sg30
F0.03766953765368387
sg31
I184899
sg32
I807956
sg33
F0.7644543353717891
sg34
g5
sg35
F0.0
sg36
F0.0
ssS'GAHN ROBERT S'
p224
(dp225
g3
g5
sg4
I73122
sg6
I50080
sg7
I00
sg8
g5
sg9
g5
sg11
g5
sg12
F0.0
sg13
I-1042
sg14
F0.21841086542877763
sg15
F0.0
sg16
g5
sg17
g5
sg18
g5
sg19
g5
sg20
I76547
sg21
g5
sg22
F0.007388708215959745
sg23
I509870
sg24
I318607
sg25
F0.05546910466582598
sg26
F0.17242912869413504
sg27
g5
sg28
F0.0
sg29
I235370
sg30
F0.002327901282217879
sg31
I192008
sg32
I900585
sg33
F0.7644543353717891
sg34
I83237
sg35
F0.0
sg36
F0.0
ssS'BADUM JAMES P'
p226
(dp227
g3
g5
sg4
I178980
sg6
I3486
sg7
I00
sg8
g5
sg9
g5
sg11
g5
sg12
F0.0
sg13
g5
sg14
F0.014600966690724582
sg15
F0.0
sg16
g5
sg17
g5
sg18
g5
sg19
g5
sg20
g5
sg21
g5
sg22
F0.005017748054557809
sg23
g5
sg24
I257817
sg25
F0.08575031525851198
sg26
F0.23250667773395478
sg27
g5
sg28
F0.0
sg29
g5
sg30
F0.007411013722802197
sg31
g5
sg32
I182466
sg33
F0.7644543353717891
sg34
I257817
sg35
F0.0
sg36
F0.0
ssS'HERMANN ROBERT J'
p228
(dp229
g3
g5
sg4
g5
sg6
I48357
sg7
I00
sg8
I150000
sg9
S'robert.hermann@enron.com'
p230
sg11
g5
sg12
F0.0
sg13
I-280000
sg14
F0.2108741771099884
sg15
F0.0
sg16
g5
sg17
g5
sg18
g5
sg19
g5
sg20
I416441
sg21
g5
sg22
F0.04019787394011444
sg23
I700000
sg24
I668132
sg25
F0.07944514501891552
sg26
F0.2360375267491972
sg27
g5
sg28
F0.0
sg29
I480632
sg30
F0.005363647372220415
sg31
I262663
sg32
I1297461
sg33
F0.7644543353717891
sg34
I187500
sg35
F0.0
sg36
F0.0
ssS'FALLON JAMES B'
p231
(dp232
g3
I1755
sg4
g5
sg6
I95924
sg7
I00
sg8
I374347
sg9
S'jim.fallon@enron.com'
p233
sg11
I42
sg12
F0.023931623931623933
sg13
g5
sg14
F0.418940139535901
sg15
F0.0
sg16
g5
sg17
I1604
sg18
g5
sg19
I75
sg20
I401481
sg21
g5
sg22
F0.03875382044333794
sg23
I2500000
sg24
I2332399
sg25
F0.3064312736443884
sg26
F0.2737812404065248
sg27
I37
sg28
F0.0
sg29
I1392142
sg30
F0.027281097661124812
sg31
I304588
sg32
I3676340
sg33
F0.7644543353717891
sg34
I940257
sg35
F0.49333333333333335
sg36
F0.0
ssS'GATHMANN WILLIAM D'
p234
(dp235
g3
g5
sg4
g5
sg6
g5
sg7
I00
sg8
g5
sg9
g5
sg11
g5
sg12
F0.0
sg13
g5
sg14
F0.20295912341709862
sg15
F0.0
sg16
I-72419
sg17
g5
sg18
g5
sg19
g5
sg20
g5
sg21
g5
sg22
F0.005017748054557809
sg23
g5
sg24
I1945360
sg25
F0.08575031525851198
sg26
F0.23250667773395478
sg27
g5
sg28
F0.0
sg29
I264013
sg30
F0.05096741750547873
sg31
g5
sg32
g5
sg33
F0.7644543353717891
sg34
I1753766
sg35
F0.0
sg36
F0.0
ssS'HORTON STANLEY C'
p236
(dp237
g3
I2350
sg4
I3131860
sg6
g5
sg7
I00
sg8
g5
sg9
S'stanley.horton@enron.com'
p238
sg11
I44
sg12
F0.01872340425531915
sg13
g5
sg14
F0.20295912341709862
sg15
F0.0
sg16
g5
sg17
I1074
sg18
g5
sg19
I1073
sg20
g5
sg21
g5
sg22
F0.005017748054557809
sg23
g5
sg24
I7256648
sg25
F0.08575031525851198
sg26
F0.23250667773395478
sg27
I15
sg28
F0.0
sg29
I2046079
sg30
F0.15161650866110474
sg31
g5
sg32
I3131860
sg33
F0.7644543353717891
sg34
I5210569
sg35
F0.013979496738117428
sg36
F0.0
ssS'BOWEN JR RAYMOND M'
p239
(dp240
g3
I1858
sg4
g5
sg6
I65907
sg7
I01
sg8
I974293
sg9
S'raymond.bowen@enron.com'
p241
sg11
I140
sg12
F0.07534983853606028
sg13
I-833
sg14
F0.28764079347374405
sg15
F0.0
sg16
g5
sg17
I1593
sg18
g5
sg19
I27
sg20
I1621
sg21
g5
sg22
F0.00015627824941719023
sg23
I1350000
sg24
I252055
sg25
F0.1614123581336696
sg26
F0.25038598967753317
sg27
I15
sg28
F0.0
sg29
I252055
sg30
F0.03766953765368387
sg31
I278601
sg32
I2669589
sg33
F0.7644543353717891
sg34
g5
sg35
F0.5555555555555556
sg36
F0.0
ssS'GILLIS JOHN'
p242
(dp243
g3
g5
sg4
g5
sg6
g5
sg7
I00
sg8
g5
sg9
g5
sg11
g5
sg12
F0.0
sg13
g5
sg14
F0.20295912341709862
sg15
F0.0
sg16
g5
sg17
g5
sg18
g5
sg19
g5
sg20
g5
sg21
g5
sg22
F0.005017748054557809
sg23
g5
sg24
I85641
sg25
F0.08575031525851198
sg26
F0.23250667773395478
sg27
g5
sg28
F0.0
sg29
I75838
sg30
F0.00018977962474354786
sg31
g5
sg32
g5
sg33
F0.7644543353717891
sg34
I9803
sg35
F0.0
sg36
F0.0
ssS'FITZGERALD JAY L'
p244
(dp245
g3
I936
sg4
g5
sg6
I23870
sg7
I00
sg8
I556416
sg9
S'jay.fitzgerald@enron.com'
p246
sg11
I1
sg12
F0.0010683760683760685
sg13
g5
sg14
F0.10376396999322003
sg15
F0.0
sg16
g5
sg17
I723
sg18
g5
sg19
I16
sg20
I285414
sg21
g5
sg22
F0.027550146833019828
sg23
I350000
sg24
I1621236
sg25
F0.03530895334174023
sg26
F0.1788651408333416
sg27
I8
sg28
F0.0
sg29
I956775
sg30
F0.019250956300926665
sg31
I199157
sg32
I1414857
sg33
F0.7644543353717891
sg34
I664461
sg35
F0.5
sg36
F0.0
ssS'MORAN MICHAEL P'
p247
(dp248
g3
I672
sg4
g5
sg6
g5
sg7
I00
sg8
g5
sg9
S'michael.moran@enron.com'
p249
sg11
I0
sg12
F0.0
sg13
g5
sg14
F0.20295912341709862
sg15
F0.0
sg16
g5
sg17
I127
sg18
g5
sg19
I19
sg20
g5
sg21
g5
sg22
F0.005017748054557809
sg23
g5
sg24
I221141
sg25
F0.08575031525851198
sg26
F0.23250667773395478
sg27
I0
sg28
F0.0
sg29
I161602
sg30
F0.001637904726959733
sg31
g5
sg32
g5
sg33
F0.7644543353717891
sg34
I59539
sg35
F0.0
sg36
F0.0
ssS'REDMOND BRIAN L'
p250
(dp251
g3
I1671
sg4
g5
sg6
I14689
sg7
I00
sg8
g5
sg9
S'brian.redmond@enron.com'
p252
sg11
I204
sg12
F0.12208258527827648
sg13
g5
sg14
F0.06360475034446558
sg15
F0.05555555555555555
sg16
g5
sg17
I1063
sg18
g5
sg19
I221
sg20
g5
sg21
g5
sg22
F0.005017748054557809
sg23
g5
sg24
I7890324
sg25
F0.08575031525851198
sg26
F0.08675247416007296
sg27
I49
sg28
F0.5
sg29
I381285
sg30
F0.2185393030895034
sg31
I96840
sg32
I111529
sg33
F0.7644543353717891
sg34
I7509039
sg35
F0.22171945701357465
sg36
F1.0
ssS'BAZELIDES PHILIP J'
p253
(dp254
g3
g5
sg4
I684694
sg6
g5
sg7
I00
sg8
I93750
sg9
g5
sg11
g5
sg12
F0.0
sg13
g5
sg14
F0.20295912341709862
sg15
F0.0
sg16
g5
sg17
g5
sg18
g5
sg19
g5
sg20
I874
sg21
g5
sg22
F8.41721022185237e-05
sg23
g5
sg24
I1599641
sg25
F0.08575031525851198
sg26
F0.07232838876430188
sg27
g5
sg28
F0.0
sg29
g5
sg30
F0.04647987766755309
sg31
I80818
sg32
I860136
sg33
F0.7644543353717891
sg34
I1599641
sg35
F0.0
sg36
F0.0
ssS'BELDEN TIMOTHY N'
p255
(dp256
g3
I7991
sg4
I2144013
sg6
I17355
sg7
I01
sg8
g5
sg9
S'tim.belden@enron.com'
p257
sg11
I228
sg12
F0.028532098610937303
sg13
I-2334434
sg14
F0.07526627736587713
sg15
F0.1111111111111111
sg16
g5
sg17
I5521
sg18
g5
sg19
I484
sg20
I210698
sg21
g5
sg22
F0.02033798767091063
sg23
I5249999
sg24
I1110705
sg25
F0.6532155107187894
sg26
F0.19222691061514377
sg27
I108
sg28
F0.75
sg29
I157569
sg30
F0.027656085661596143
sg31
I213999
sg32
I5501630
sg33
F0.7644543353717891
sg34
I953136
sg35
F0.2231404958677686
sg36
F1.5
ssS'DIMICHELE RICHARD G'
p258
(dp259
g3
g5
sg4
g5
sg6
I35812
sg7
I00
sg8
I694862
sg9
S'richard.dimichele@enron.com'
p260
sg11
g5
sg12
F0.0
sg13
g5
sg14
F0.15600026244997048
sg15
F0.0
sg16
g5
sg17
g5
sg18
g5
sg19
g5
sg20
I374689
sg21
g5
sg22
F0.03616765190820183
sg23
I1000000
sg24
I8317782
sg25
F0.11727616645649433
sg26
F0.23615006018288034
sg27
g5
sg28
F0.0
sg29
I126027
sg30
F0.2384174231088983
sg31
I262788
sg32
I2368151
sg33
F0.7644543353717891
sg34
I8191755
sg35
F0.0
sg36
F0.0
ssS'DURAN WILLIAM D'
p261
(dp262
g3
I904
sg4
g5
sg6
I25785
sg7
I00
sg8
I1105218
sg9
S'w.duran@enron.com'
p263
sg11
I106
sg12
F0.1172566371681416
sg13
g5
sg14
F0.11214049821752728
sg15
F0.0
sg16
g5
sg17
I599
sg18
g5
sg19
I12
sg20
I1568
sg21
g5
sg22
F0.0001511622844887708
sg23
I750000
sg24
I1640910
sg25
F0.08575031525851198
sg26
F0.18924972609362242
sg27
I3
sg28
F0.0
sg29
I189041
sg30
F0.042177313275469086
sg31
I210692
sg32
I2093263
sg33
F0.7644543353717891
sg34
I1451869
sg35
F0.25
sg36
F0.0
ssS'THORN TERENCE H'
p264
(dp265
g3
I266
sg4
I16586
sg6
I46145
sg7
I00
sg8
I200000
sg9
S'terence.thorn@enron.com'
p266
sg11
I0
sg12
F0.0
sg13
g5
sg14
F0.201198521531833
sg15
F0.0
sg16
g5
sg17
I73
sg18
g5
sg19
I41
sg20
I426629
sg21
g5
sg22
F0.041181297538052886
sg23
g5
sg24
I4817796
sg25
F0.08575031525851198
sg26
F0.19951367551299493
sg27
I0
sg28
F0.0
sg29
I365320
sg30
F0.129543694138136
sg31
I222093
sg32
I911453
sg33
F0.7644543353717891
sg34
I4452476
sg35
F0.0
sg36
F0.0
ssS'FASTOW ANDREW S'
p267
(dp268
g3
g5
sg4
g5
sg6
I55921
sg7
I01
sg8
I1736055
sg9
S'andrew.fastow@enron.com'
p269
sg11
g5
sg12
F0.0
sg13
I-1386055
sg14
F0.24396037005445836
sg15
F0.0
sg16
g5
sg17
g5
sg18
g5
sg19
g5
sg20
I277464
sg21
g5
sg22
F0.02678275209375691
sg23
I1300000
sg24
I1794412
sg25
F0.15510718789407316
sg26
F0.3963166456754302
sg27
g5
sg28
F0.0
sg29
I1794412
sg30
F0.03766953765368387
sg31
I440698
sg32
I2424083
sg33
F0.7644543353717891
sg34
g5
sg35
F0.0
sg36
F0.0
ssS'FOY JOE'
p270
(dp271
g3
I57
sg4
I181755
sg6
g5
sg7
I00
sg8
g5
sg9
S'tracy.foy@enron.com'
p272
sg11
I0
sg12
F0.0
sg13
g5
sg14
F0.20295912341709862
sg15
F0.0
sg16
g5
sg17
I2
sg18
g5
sg19
I13
sg20
g5
sg21
g5
sg22
F0.005017748054557809
sg23
g5
sg24
I343434
sg25
F0.08575031525851198
sg26
F0.23250667773395478
sg27
I0
sg28
F0.0
sg29
g5
sg30
F0.009903858480652509
sg31
g5
sg32
I181755
sg33
F0.7644543353717891
sg34
I343434
sg35
F0.0
sg36
F0.0
ssS'CALGER CHRISTOPHER F'
p273
(dp274
g3
I2598
sg4
g5
sg6
I35818
sg7
I01
sg8
I375304
sg9
S'christopher.calger@enron.com'
p275
sg11
I199
sg12
F0.07659738260200154
sg13
I-262500
sg14
F0.15602650744701793
sg15
F0.0
sg16
g5
sg17
I2188
sg18
g5
sg19
I144
sg20
I486
sg21
g5
sg22
F4.671937783688701e-05
sg23
I1250000
sg24
I126027
sg25
F0.14880201765447668
sg26
F0.2158049156404368
sg27
I25
sg28
F0.0
sg29
I126027
sg30
F0.03766953765368387
sg31
I240189
sg32
I1639297
sg33
F0.7644543353717891
sg34
g5
sg35
F0.1736111111111111
sg36
F0.0
ssS'RICE KENNETH D'
p276
(dp277
g3
I905
sg4
g5
sg6
I46950
sg7
I01
sg8
I1617011
sg9
S'ken.rice@enron.com'
p278
sg11
I42
sg12
F0.04640883977900553
sg13
I-3504386
sg14
F0.20471972530236424
sg15
F0.0
sg16
g5
sg17
I864
sg18
g5
sg19
I18
sg20
I174839
sg21
g5
sg22
F0.016876603022454164
sg23
I1750000
sg24
I22542539
sg25
F0.21185372005044137
sg26
F0.37825547970301976
sg27
I4
sg28
F0.0
sg29
I2748364
sg30
F0.5762362193220057
sg31
I420636
sg32
I505050
sg33
F0.7644543353717891
sg34
I19794175
sg35
F0.2222222222222222
sg36
F0.0
ssS'KAMINSKI WINCENTY J'
p279
(dp280
g3
I4607
sg4
g5
sg6
I83585
sg7
I00
sg8
I323466
sg9
S'vince.kaminski@enron.com'
p281
sg11
I41
sg12
F0.008899500759713479
sg13
g5
sg14
F0.3649673031078451
sg15
F0.0
sg16
g5
sg17
I583
sg18
g5
sg19
I14368
sg20
I4669
sg21
g5
sg22
F0.0004504944966213878
sg23
I400000
sg24
I976037
sg25
F0.0416141235813367
sg26
F0.24723505353440509
sg27
I171
sg28
F0.0
sg29
I126027
sg30
F0.02465344473166317
sg31
I275101
sg32
I1086821
sg33
F0.7644543353717891
sg34
I850010
sg35
F0.011901447661469933
sg36
F0.0
ssS'LOCKHART EUGENE E'
p282
(dp283
g3
g5
sg4
g5
sg6
g5
sg7
I00
sg8
g5
sg9
g5
sg11
g5
sg12
F0.0
sg13
g5
sg14
F0.20295912341709862
sg15
F0.0
sg16
g5
sg17
g5
sg18
g5
sg19
g5
sg20
g5
sg21
g5
sg22
F0.005017748054557809
sg23
g5
sg24
g5
sg25
F0.08575031525851198
sg26
F0.23250667773395478
sg27
g5
sg28
F0.0
sg29
g5
sg30
F0.03766953765368387
sg31
g5
sg32
g5
sg33
F0.7644543353717891
sg34
g5
sg35
F0.0
sg36
F0.0
ssS'COX DAVID'
p284
(dp285
g3
I102
sg4
g5
sg6
I27861
sg7
I00
sg8
g5
sg9
S'chip.cox@enron.com'
p286
sg11
I0
sg12
F0.0
sg13
I-41250
sg14
F0.12122126719594077
sg15
F0.0
sg16
g5
sg17
I71
sg18
g5
sg19
I33
sg20
I494
sg21
g5
sg22
F4.7491598958157875e-05
sg23
I800000
sg24
I495633
sg25
F0.09205548549810845
sg26
F0.282513834860337
sg27
I4
sg28
F0.0
sg29
I378082
sg30
F0.0033269957964016934
sg31
I314288
sg32
I1101393
sg33
F0.7644543353717891
sg34
I117551
sg35
F0.12121212121212122
sg36
F0.0
ssS'OVERDYKE JR JERE C'
p287
(dp288
g3
g5
sg4
g5
sg6
I18834
sg7
I00
sg8
I135836
sg9
S'jere.overdyke@enron.com'
p289
sg11
g5
sg12
F0.0
sg13
g5
sg14
F0.08173566913807055
sg15
F0.0
sg16
g5
sg17
g5
sg18
g5
sg19
g5
sg20
I176
sg21
g5
sg22
F1.67958093876412e-05
sg23
g5
sg24
I7307594
sg25
F0.08575031525851198
sg26
F0.08504286623555858
sg27
g5
sg28
F0.0
sg29
I2041016
sg30
F0.15324727991030102
sg31
I94941
sg32
I249787
sg33
F0.7644543353717891
sg34
I5266578
sg35
F0.0
sg36
F0.0
ssS'PEREIRA PAULO V. FERRAZ'
p290
(dp291
g3
g5
sg4
g5
sg6
I27942
sg7
I00
sg8
g5
sg9
g5
sg11
g5
sg12
F0.0
sg13
I-101250
sg14
F0.12157557465608118
sg15
F0.0
sg16
g5
sg17
g5
sg18
g5
sg19
g5
sg20
g5
sg21
I101250
sg22
F0.005017748054557809
sg23
g5
sg24
g5
sg25
F0.08575031525851198
sg26
F0.23250667773395478
sg27
g5
sg28
F0.0
sg29
g5
sg30
F0.03766953765368387
sg31
g5
sg32
I27942
sg33
F0.7279367509046731
sg34
g5
sg35
F0.0
sg36
F0.0
ssS'STABLER FRANK'
p292
(dp293
g3
g5
sg4
g5
sg6
I16514
sg7
I00
sg8
g5
sg9
S'frank.stabler@enron.com'
p294
sg11
g5
sg12
F0.0
sg13
g5
sg14
F0.07158760361306125
sg15
F0.0
sg16
g5
sg17
g5
sg18
g5
sg19
g5
sg20
I356071
sg21
g5
sg22
F0.03437050030372422
sg23
I500000
sg24
I511734
sg25
F0.05422446406052964
sg26
F0.2151864318889142
sg27
g5
sg28
F0.0
sg29
I511734
sg30
F0.03766953765368387
sg31
I239502
sg32
I1112087
sg33
F0.7644543353717891
sg34
g5
sg35
F0.0
sg36
F0.0
ssS'SKILLING JEFFREY K'
p295
(dp296
g3
I3627
sg4
g5
sg6
I29336
sg7
I01
sg8
I1920000
sg9
S'jeff.skilling@enron.com'
p297
sg11
I88
sg12
F0.0242624758753791
sg13
g5
sg14
F0.12767316230343592
sg15
F0.2222222222222222
sg16
g5
sg17
I2042
sg18
g5
sg19
I108
sg20
I22122
sg21
g5
sg22
F0.0021351914003139272
sg23
I5600000
sg24
I26093672
sg25
F0.6973518284993695
sg26
F1.0
sg27
I30
sg28
F0.5
sg29
I6843672
sg30
F0.5603918917223094
sg31
I1111258
sg32
I8682716
sg33
F0.7644543353717891
sg34
I19250000
sg35
F0.2777777777777778
sg36
F1.0
ssS'BLAKE JR. NORMAN P'
p298
(dp299
g3
g5
sg4
g5
sg6
I1279
sg7
I00
sg8
g5
sg9
g5
sg11
g5
sg12
F0.0
sg13
I-113784
sg14
F0.004947181943442031
sg15
F0.0
sg16
g5
sg17
g5
sg18
g5
sg19
g5
sg20
g5
sg21
I113784
sg22
F0.005017748054557809
sg23
g5
sg24
g5
sg25
F0.08575031525851198
sg26
F0.23250667773395478
sg27
g5
sg28
F0.0
sg29
g5
sg30
F0.03766953765368387
sg31
g5
sg32
I1279
sg33
F0.8210716382199303
sg34
g5
sg35
F0.0
sg36
F0.0
ssS'SHERRICK JEFFREY B'
p300
(dp301
g3
I613
sg4
g5
sg6
g5
sg7
I00
sg8
g5
sg9
S'jeffrey.sherrick@enron.com'
p302
sg11
I39
sg12
F0.0636215334420881
sg13
g5
sg14
F0.20295912341709862
sg15
F0.0
sg16
g5
sg17
I583
sg18
g5
sg19
I25
sg20
g5
sg21
g5
sg22
F0.005017748054557809
sg23
g5
sg24
I1832468
sg25
F0.08575031525851198
sg26
F0.23250667773395478
sg27
I18
sg28
F0.0
sg29
I405999
sg30
F0.04143776088693179
sg31
g5
sg32
g5
sg33
F0.7644543353717891
sg34
I1426469
sg35
F0.72
sg36
F0.0
ssS'PRENTICE JAMES'
p303
(dp304
g3
g5
sg4
I564348
sg6
g5
sg7
I00
sg8
g5
sg9
S'james.prentice@enron.com'
p305
sg11
g5
sg12
F0.0
sg13
g5
sg14
F0.20295912341709862
sg15
F0.0
sg16
g5
sg17
g5
sg18
g5
sg19
g5
sg20
g5
sg21
g5
sg22
F0.005017748054557809
sg23
g5
sg24
I1095040
sg25
F0.08575031525851198
sg26
F0.23250667773395478
sg27
g5
sg28
F0.0
sg29
I208809
sg30
F0.02570806390745882
sg31
g5
sg32
I564348
sg33
F0.7644543353717891
sg34
I886231
sg35
F0.0
sg36
F0.0
ssS'GRAY RODNEY'
p306
(dp307
g3
g5
sg4
I93585
sg6
g5
sg7
I00
sg8
I365625
sg9
g5
sg11
g5
sg12
F0.0
sg13
g5
sg14
F0.20295912341709862
sg15
F0.0
sg16
g5
sg17
g5
sg18
g5
sg19
g5
sg20
I680833
sg21
g5
sg22
F0.06571900977699509
sg23
g5
sg24
g5
sg25
F0.08575031525851198
sg26
F0.005525841727577263
sg27
g5
sg28
F0.0
sg29
g5
sg30
F0.03766953765368387
sg31
I6615
sg32
I1146658
sg33
F0.7644543353717891
sg34
g5
sg35
F0.0
sg36
F0.0
ssS'THE TRAVEL AGENCY IN THE PARK'
p308
(dp309
g3
g5
sg4
g5
sg6
g5
sg7
I00
sg8
g5
sg9
g5
sg11
g5
sg12
F0.0
sg13
g5
sg14
F0.20295912341709862
sg15
F0.0
sg16
g5
sg17
g5
sg18
g5
sg19
g5
sg20
I362096
sg21
g5
sg22
F0.034952079335681334
sg23
g5
sg24
g5
sg25
F0.08575031525851198
sg26
F0.23250667773395478
sg27
g5
sg28
F0.0
sg29
g5
sg30
F0.03766953765368387
sg31
g5
sg32
I362096
sg33
F0.7644543353717891
sg34
g5
sg35
F0.0
sg36
F0.0
ssS'UMANOFF ADAM S'
p310
(dp311
g3
I111
sg4
g5
sg6
I53122
sg7
I00
sg8
g5
sg9
S'adam.umanoff@enron.com'
p312
sg11
I12
sg12
F0.10810810810810811
sg13
g5
sg14
F0.23171707893182864
sg15
F0.0
sg16
g5
sg17
I41
sg18
g5
sg19
I18
sg20
g5
sg21
g5
sg22
F0.005017748054557809
sg23
I788750
sg24
g5
sg25
F0.09063682219419925
sg26
F0.2593778611625514
sg27
I0
sg28
F0.0
sg29
g5
sg30
F0.03766953765368387
sg31
I288589
sg32
I1130461
sg33
F0.7644543353717891
sg34
g5
sg35
F0.0
sg36
F0.0
ssS'KEAN STEVEN J'
p313
(dp314
g3
I12754
sg4
g5
sg6
I41953
sg7
I00
sg8
I300000
sg9
S'steven.kean@enron.com'
p315
sg11
I140
sg12
F0.010976948408342482
sg13
g5
sg14
F0.1828620169280231
sg15
F0.05555555555555555
sg16
g5
sg17
I3639
sg18
g5
sg19
I6759
sg20
I1231
sg21
g5
sg22
F0.00011863246975523582
sg23
I1000000
sg24
I6153642
sg25
F0.11727616645649433
sg26
F0.3635829204856763
sg27
I387
sg28
F0.5
sg29
I4131594
sg30
F0.05877877947010722
sg31
I404338
sg32
I1747522
sg33
F0.7644543353717891
sg34
I2022048
sg35
F0.05725699067909454
sg36
F1.0
ssS'FOWLER PEGGY'
p316
(dp317
g3
I517
sg4
g5
sg6
g5
sg7
I00
sg8
g5
sg9
S'kulvinder.fowler@enron.com'
p318
sg11
I0
sg12
F0.0
sg13
g5
sg14
F0.20295912341709862
sg15
F0.0
sg16
g5
sg17
I10
sg18
g5
sg19
I36
sg20
g5
sg21
g5
sg22
F0.005017748054557809
sg23
g5
sg24
I1884748
sg25
F0.08575031525851198
sg26
F0.23250667773395478
sg27
I0
sg28
F0.0
sg29
I560170
sg30
F0.03847107850817376
sg31
g5
sg32
g5
sg33
F0.7644543353717891
sg34
I1324578
sg35
F0.0
sg36
F0.0
ssS'WASAFF GEORGE'
p319
(dp320
g3
I400
sg4
I831299
sg6
g5
sg7
I00
sg8
I200000
sg9
S'george.wasaff@enron.com'
p321
sg11
I22
sg12
F0.055
sg13
I-583325
sg14
F0.20295912341709862
sg15
F0.0
sg16
g5
sg17
I337
sg18
g5
sg19
I30
sg20
I1425
sg21
g5
sg22
F0.00013735883194605417
sg23
I325000
sg24
I2056427
sg25
F0.032156368221942
sg26
F0.23363651340813357
sg27
I7
sg28
F0.0
sg29
I388167
sg30
F0.0484778046497988
sg31
I259996
sg32
I1034395
sg33
F0.7644543353717891
sg34
I1668260
sg35
F0.23333333333333334
sg36
F0.0
ssS'WHITE JR THOMAS E'
p322
(dp323
g3
g5
sg4
g5
sg6
I81353
sg7
I00
sg8
g5
sg9
S'thomas.white@enron.com'
p324
sg11
g5
sg12
F0.0
sg13
g5
sg14
F0.3552041642061982
sg15
F0.0
sg16
g5
sg17
g5
sg18
g5
sg19
g5
sg20
I1085463
sg21
g5
sg22
F0.10477698881447359
sg23
I450000
sg24
I15144123
sg25
F0.04791929382093317
sg26
F0.2854442054734462
sg27
g5
sg28
F0.0
sg29
I13847074
sg30
F0.03766953765368387
sg31
I317543
sg32
I1934359
sg33
F0.7644543353717891
sg34
I1297049
sg35
F0.0
sg36
F0.0
ssS'CHRISTODOULOU DIOMEDES'
p325
(dp326
g3
g5
sg4
g5
sg6
g5
sg7
I00
sg8
g5
sg9
S'diomedes.christodoulou@enron.com'
p327
sg11
g5
sg12
F0.0
sg13
g5
sg14
F0.20295912341709862
sg15
F0.0
sg16
g5
sg17
g5
sg18
g5
sg19
g5
sg20
g5
sg21
g5
sg22
F0.005017748054557809
sg23
g5
sg24
I6077885
sg25
F0.08575031525851198
sg26
F0.23250667773395478
sg27
g5
sg28
F0.0
sg29
I950730
sg30
F0.14918780697065395
sg31
g5
sg32
g5
sg33
F0.7644543353717891
sg34
I5127155
sg35
F0.0
sg36
F0.0
ssS'ALLEN PHILLIP K'
p328
(dp329
g3
I2902
sg4
I2869717
sg6
I13868
sg7
I00
sg8
I304805
sg9
S'phillip.allen@enron.com'
p330
sg11
I47
sg12
F0.016195727084769126
sg13
I-3081055
sg14
F0.06001355991514118
sg15
F0.0
sg16
I-126027
sg17
I1407
sg18
g5
sg19
I2195
sg20
I152
sg21
g5
sg22
F1.4479146023828618e-05
sg23
I4175000
sg24
I1729541
sg25
F0.5176544766708702
sg26
F0.18138408921290516
sg27
I65
sg28
F0.0
sg29
I126027
sg30
F0.050262076693970224
sg31
I201955
sg32
I4484442
sg33
F0.7644543353717891
sg34
I1729541
sg35
F0.029612756264236904
sg36
F0.0
ssS'SHARP VICTORIA T'
p331
(dp332
g3
I3136
sg4
I187469
sg6
I116337
sg7
I00
sg8
I422158
sg9
S'vicki.sharp@enron.com'
p333
sg11
I24
sg12
F0.007653061224489796
sg13
g5
sg14
F0.508229993657459
sg15
F0.05555555555555555
sg16
g5
sg17
I2477
sg18
g5
sg19
I136
sg20
I2401
sg21
g5
sg22
F0.00023156980874109906
sg23
I600000
sg24
I494136
sg25
F0.06683480453972258
sg26
F0.22296834389497122
sg27
I6
sg28
F0.5
sg29
I213063
sg30
F0.008088140901850362
sg31
I248146
sg32
I1576511
sg33
F0.7644543353717891
sg34
I281073
sg35
F0.04411764705882353
sg36
F1.0
ssS'JAEDICKE ROBERT'
p334
(dp335
g3
g5
sg4
g5
sg6
g5
sg7
I00
sg8
g5
sg9
g5
sg11
g5
sg12
F0.0
sg13
I-25000
sg14
F0.20295912341709862
sg15
F0.0
sg16
I-44093
sg17
g5
sg18
g5
sg19
g5
sg20
g5
sg21
I108750
sg22
F0.005017748054557809
sg23
g5
sg24
I431750
sg25
F0.08575031525851198
sg26
F0.23250667773395478
sg27
g5
sg28
F0.0
sg29
I44093
sg30
F0.012475287958843851
sg31
g5
sg32
I83750
sg33
F0.7836660994657414
sg34
I431750
sg35
F0.0
sg36
F0.0
ssS'WINOKUR JR. HERBERT S'
p336
(dp337
g3
g5
sg4
g5
sg6
I1413
sg7
I00
sg8
g5
sg9
g5
sg11
g5
sg12
F0.0
sg13
I-25000
sg14
F0.005533320210834809
sg15
F0.0
sg16
g5
sg17
g5
sg18
g5
sg19
g5
sg20
g5
sg21
I108579
sg22
F0.005017748054557809
sg23
g5
sg24
g5
sg25
F0.08575031525851198
sg26
F0.23250667773395478
sg27
g5
sg28
F0.0
sg29
g5
sg30
F0.03766953765368387
sg31
g5
sg32
I84992
sg33
F0.782395470318549
sg34
g5
sg35
F0.0
sg36
F0.0
ssS'BROWN MICHAEL'
p338
(dp339
g3
I1486
sg4
g5
sg6
I49288
sg7
I00
sg8
g5
sg9
S'michael.brown@enron.com'
p340
sg11
I13
sg12
F0.008748317631224764
sg13
g5
sg14
F0.21494652581851584
sg15
F0.0
sg16
g5
sg17
I761
sg18
g5
sg19
I41
sg20
g5
sg21
g5
sg22
F0.005017748054557809
sg23
g5
sg24
g5
sg25
F0.08575031525851198
sg26
F0.23250667773395478
sg27
I1
sg28
F0.0
sg29
g5
sg30
F0.03766953765368387
sg31
g5
sg32
I49288
sg33
F0.7644543353717891
sg34
g5
sg35
F0.024390243902439025
sg36
F0.0
ssS'MCCLELLAN GEORGE'
p341
(dp342
g3
I1744
sg4
g5
sg6
I228763
sg7
I00
sg8
g5
sg9
S'george.mcclellan@enron.com'
p343
sg11
I52
sg12
F0.02981651376146789
sg13
I-125000
sg14
F1.0
sg15
F0.0
sg16
g5
sg17
I1469
sg18
g5
sg19
I49
sg20
I51587
sg21
g5
sg22
F0.004979378317594662
sg23
I900000
sg24
I947861
sg25
F0.1046658259773014
sg26
F0.2367127273512961
sg27
I0
sg28
F0.0
sg29
I441096
sg30
F0.014659442385069265
sg31
I263413
sg32
I1318763
sg33
F0.7644543353717891
sg34
I506765
sg35
F0.0
sg36
F0.0
ssS'HUGHES JAMES A'
p344
(dp345
g3
I719
sg4
g5
sg6
g5
sg7
I00
sg8
g5
sg9
S'james.hughes@enron.com'
p346
sg11
I35
sg12
F0.048678720445062586
sg13
g5
sg14
F0.20295912341709862
sg15
F0.0
sg16
g5
sg17
I589
sg18
g5
sg19
I34
sg20
g5
sg21
g5
sg22
F0.005017748054557809
sg23
g5
sg24
I1118394
sg25
F0.08575031525851198
sg26
F0.23250667773395478
sg27
I5
sg28
F0.0
sg29
I363428
sg30
F0.021886121219216754
sg31
g5
sg32
g5
sg33
F0.7644543353717891
sg34
I754966
sg35
F0.14705882352941177
sg36
F0.0
ssS'REYNOLDS LAWRENCE'
p347
(dp348
g3
g5
sg4
I51365
sg6
I8409
sg7
I00
sg8
I156250
sg9
g5
sg11
g5
sg12
F0.0
sg13
I-200000
sg14
F0.036134986768147324
sg15
F0.0
sg16
I-140264
sg17
g5
sg18
g5
sg19
g5
sg20
I202052
sg21
g5
sg22
F0.01950340969409715
sg23
I100000
sg24
I4221891
sg25
F0.0037831021437578806
sg26
F0.06835010681673526
sg27
g5
sg28
F0.0
sg29
I201483
sg30
F0.12104746007574471
sg31
I76399
sg32
I394475
sg33
F0.7644543353717891
sg34
I4160672
sg35
F0.0
sg36
F0.0
ssS'PICKERING MARK R'
p349
(dp350
g3
I898
sg4
g5
sg6
I31653
sg7
I00
sg8
g5
sg9
S'mark.pickering@enron.com'
p351
sg11
I7
sg12
F0.0077951002227171495
sg13
g5
sg14
F0.1378081053299215
sg15
F0.0
sg16
g5
sg17
I728
sg18
I400000
sg19
I67
sg20
g5
sg21
g5
sg22
F0.005017748054557809
sg23
I300000
sg24
I28798
sg25
F0.029003783102143764
sg26
F0.589279074813127
sg27
I0
sg28
F0.0
sg29
g5
sg30
F0.0007428425231792169
sg31
I655037
sg32
I1386690
sg33
F0.7644543353717891
sg34
I28798
sg35
F0.0
sg36
F0.0
ssS'BHATNAGAR SANJAY'
p352
(dp353
g3
I523
sg4
g5
sg6
g5
sg7
I00
sg8
g5
sg9
S'sanjay.bhatnagar@enron.com'
p354
sg11
I0
sg12
F0.0
sg13
g5
sg14
F0.20295912341709862
sg15
F0.0
sg16
I15456290
sg17
I463
sg18
g5
sg19
I29
sg20
I137864
sg21
I137864
sg22
F0.013307493527580408
sg23
g5
sg24
S'NaN'
p355
sg25
F0.08575031525851198
sg26
F0.23250667773395478
sg27
I1
sg28
F0.0
sg29
I-2604490
sg30
F0.07573729806398287
sg31
g5
sg32
I15456290
sg33
F1.0
sg34
I2604490
sg35
F0.034482758620689655
sg36
F0.0
ssS'CARTER REBECCA C'
p356
(dp357
g3
I312
sg4
g5
sg6
g5
sg7
I00
sg8
I75000
sg9
S'rebecca.carter@enron.com'
p358
sg11
I29
sg12
F0.09294871794871795
sg13
I-159792
sg14
F0.20295912341709862
sg15
F0.0
sg16
I-307301
sg17
I196
sg18
g5
sg19
I15
sg20
I540
sg21
g5
sg22
F5.1931870405465315e-05
sg23
I300000
sg24
g5
sg25
F0.029003783102143764
sg26
F0.23526869833027395
sg27
I7
sg28
F0.0
sg29
I307301
sg30
F0.03766953765368387
sg31
I261809
sg32
I477557
sg33
F0.7644543353717891
sg34
g5
sg35
F0.4666666666666667
sg36
F0.0
ssS'BUCHANAN HAROLD G'
p359
(dp360
g3
I1088
sg4
g5
sg6
I600
sg7
I00
sg8
I304805
sg9
S'john.buchanan@enron.com'
p361
sg11
I0
sg12
F0.0
sg13
g5
sg14
F0.001977123110906983
sg15
F0.0
sg16
g5
sg17
I23
sg18
g5
sg19
I125
sg20
I1215
sg21
g5
sg22
F0.0001170880275126941
sg23
I500000
sg24
I1014505
sg25
F0.05422446406052964
sg26
F0.2228522093914102
sg27
I0
sg28
F0.0
sg29
I189041
sg30
F0.023938757608472756
sg31
I248017
sg32
I1054637
sg33
F0.7644543353717891
sg34
I825464
sg35
F0.0
sg36
F0.0
ssS'YEAP SOON'
p362
(dp363
g3
g5
sg4
g5
sg6
I55097
sg7
I00
sg8
g5
sg9
g5
sg11
g5
sg12
F0.0
sg13
g5
sg14
F0.24035605712661023
sg15
F0.0
sg16
g5
sg17
g5
sg18
g5
sg19
g5
sg20
g5
sg21
g5
sg22
F0.005017748054557809
sg23
g5
sg24
I192758
sg25
F0.08575031525851198
sg26
F0.23250667773395478
sg27
g5
sg28
F0.0
sg29
g5
sg30
F0.0055167405398947895
sg31
g5
sg32
I55097
sg33
F0.7644543353717891
sg34
I192758
sg35
F0.0
sg36
F0.0
ssS'MURRAY JULIA H'
p364
(dp365
g3
I2192
sg4
g5
sg6
I57580
sg7
I00
sg8
I125000
sg9
S'julia.murray@enron.com'
p366
sg11
I11
sg12
F0.005018248175182482
sg13
g5
sg14
F0.2512171117380749
sg15
F0.0
sg16
g5
sg17
I395
sg18
g5
sg19
I45
sg20
I330
sg21
g5
sg22
F3.166106597210525e-05
sg23
I400000
sg24
I597461
sg25
F0.0416141235813367
sg26
F0.20598749888591902
sg27
I2
sg28
F0.0
sg29
I196983
sg30
F0.011564765033869898
sg31
I229284
sg32
I812194
sg33
F0.7644543353717891
sg34
I400478
sg35
F0.044444444444444446
sg36
F0.0
ssS'GARLAND C KEVIN'
p367
(dp368
g3
I209
sg4
g5
sg6
I48405
sg7
I00
sg8
I375304
sg9
S'kevin.garland@enron.com'
p369
sg11
I10
sg12
F0.04784688995215311
sg13
g5
sg14
F0.21108413708636792
sg15
F0.0
sg16
g5
sg17
I178
sg18
g5
sg19
I44
sg20
I60814
sg21
g5
sg22
F0.00587003885334044
sg23
I850000
sg24
I896153
sg25
F0.09836065573770493
sg26
F0.20838401088963532
sg27
I27
sg28
F0.0
sg29
I259907
sg30
F0.018429441708699108
sg31
I231946
sg32
I1566469
sg33
F0.7644543353717891
sg34
I636246
sg35
F0.6136363636363636
sg36
F0.0
ssS'DODSON KEITH'
p370
(dp371
g3
I176
sg4
g5
sg6
I28164
sg7
I00
sg8
g5
sg9
S'keith.dodson@enron.com'
p372
sg11
I10
sg12
F0.056818181818181816
sg13
g5
sg14
F0.12254663954683638
sg15
F0.0
sg16
g5
sg17
I114
sg18
g5
sg19
I14
sg20
I774
sg21
g5
sg22
F7.451933820263796e-05
sg23
I70000
sg24
g5
sg25
F0.0
sg26
F0.1985323839712779
sg27
I3
sg28
F0.0
sg29
g5
sg30
F0.03766953765368387
sg31
I221003
sg32
I319941
sg33
F0.7644543353717891
sg34
g5
sg35
F0.21428571428571427
sg36
F0.0
ssS'YEAGER F SCOTT'
p373
(dp374
g3
g5
sg4
g5
sg6
I53947
sg7
I01
sg8
g5
sg9
S'scott.yeager@enron.com'
p375
sg11
g5
sg12
F0.0
sg13
g5
sg14
F0.2353257660258513
sg15
F0.0
sg16
g5
sg17
g5
sg18
g5
sg19
g5
sg20
I147950
sg21
g5
sg22
F0.014281071306222644
sg23
g5
sg24
I11884758
sg25
F0.08575031525851198
sg26
F0.14217564038275773
sg27
g5
sg28
F0.0
sg29
I3576206
sg30
F0.2418181120980318
sg31
I158403
sg32
I360300
sg33
F0.7644543353717891
sg34
I8308552
sg35
F0.0
sg36
F0.0
ssS'HIRKO JOSEPH'
p376
(dp377
g3
g5
sg4
I10259
sg6
I77978
sg7
I01
sg8
g5
sg9
S'joe.hirko@enron.com'
p378
sg11
g5
sg12
F0.0
sg13
g5
sg14
F0.3404413533670144
sg15
F0.0
sg16
g5
sg17
g5
sg18
g5
sg19
g5
sg20
I2856
sg21
g5
sg22
F0.0002754898850133792
sg23
g5
sg24
I30766064
sg25
F0.08575031525851198
sg26
F0.23250667773395478
sg27
g5
sg28
F0.0
sg29
g5
sg30
F0.8956963262793332
sg31
g5
sg32
I91093
sg33
F0.7644543353717891
sg34
I30766064
sg35
F0.0
sg36
F0.0
ssS'DIETRICH JANET R'
p379
(dp380
g3
I2572
sg4
g5
sg6
I3475
sg7
I00
sg8
I556416
sg9
S'janet.dietrich@enron.com'
p381
sg11
I305
sg12
F0.11858475894245724
sg13
g5
sg14
F0.014552850862804279
sg15
F0.05555555555555555
sg16
g5
sg17
I1902
sg18
g5
sg19
I63
sg20
I473
sg21
g5
sg22
F4.546451851482187e-05
sg23
I600000
sg24
I1865087
sg25
F0.06683480453972258
sg26
F0.22472746653030617
sg27
I14
sg28
F0.5
sg29
I315068
sg30
F0.04503507181621459
sg31
I250100
sg32
I1410464
sg33
F0.7644543353717891
sg34
I1550019
sg35
F0.2222222222222222
sg36
F1.0
ssS'DERRICK JR. JAMES V'
p382
(dp383
g3
I2181
sg4
g5
sg6
I51124
sg7
I00
sg8
I484000
sg9
S'james.derrick@enron.com'
p384
sg11
I64
sg12
F0.029344337459880788
sg13
I-1284000
sg14
F0.22297749491503183
sg15
F0.0
sg16
I-1787380
sg17
I1401
sg18
g5
sg19
I909
sg20
I7482
sg21
g5
sg22
F0.0007220267483882538
sg23
I800000
sg24
I8831913
sg25
F0.09205548549810845
sg26
F0.4428397676949822
sg27
I20
sg28
F0.0
sg29
I1787380
sg30
F0.25705641436642823
sg31
I492375
sg32
I550981
sg33
F0.7644543353717891
sg34
I8831913
sg35
F0.022002200220022004
sg36
F0.0
ssS'FREVERT MARK A'
p385
(dp386
g3
I3275
sg4
I6426990
sg6
I86987
sg7
I00
sg8
I1617011
sg9
S'mark.frevert@enron.com'
p387
sg11
I242
sg12
F0.07389312977099237
sg13
I-3367011
sg14
F0.37984821643374234
sg15
F0.0
sg16
g5
sg17
I2979
sg18
I2000000
sg19
I21
sg20
I7427621
sg21
g5
sg22
F0.7169705340690927
sg23
I2000000
sg24
I14622185
sg25
F0.24337957124842372
sg26
F0.9546931393316955
sg27
I6
sg28
F0.0
sg29
I4188667
sg30
F0.3036891231555338
sg31
I1060932
sg32
I17252530
sg33
F0.7644543353717891
sg34
I10433518
sg35
F0.2857142857142857
sg36
F0.0
ssS'PAI LOU L'
p388
(dp389
g3
g5
sg4
g5
sg6
I32047
sg7
I00
sg8
g5
sg9
S'lou.pai@enron.com'
p390
sg11
g5
sg12
F0.0
sg13
g5
sg14
F0.13953152680270325
sg15
F0.0
sg16
g5
sg17
g5
sg18
g5
sg19
g5
sg20
I1829457
sg21
g5
sg22
F0.17659297392682258
sg23
I1000000
sg24
I23817930
sg25
F0.11727616645649433
sg26
F0.23533171705313652
sg27
g5
sg28
F0.0
sg29
I8453763
sg30
F0.44725106193463005
sg31
I261879
sg32
I3123383
sg33
F0.7644543353717891
sg34
I15364167
sg35
F0.0
sg36
F0.0
ssS'HAYSLETT RODERICK J'
p391
(dp392
g3
I2649
sg4
g5
sg6
g5
sg7
I00
sg8
g5
sg9
S'rod.hayslett@enron.com'
p393
sg11
I35
sg12
F0.01321253303133258
sg13
g5
sg14
F0.20295912341709862
sg15
F0.0
sg16
g5
sg17
I571
sg18
g5
sg19
I1061
sg20
g5
sg21
g5
sg22
F0.005017748054557809
sg23
g5
sg24
I346663
sg25
F0.08575031525851198
sg26
F0.23250667773395478
sg27
I38
sg28
F0.0
sg29
I346663
sg30
F0.03766953765368387
sg31
g5
sg32
g5
sg33
F0.7644543353717891
sg34
g5
sg35
F0.03581526861451461
sg36
F0.0
ssS'BAY FRANKLIN R'
p394
(dp395
g3
g5
sg4
I260455
sg6
I129142
sg7
I00
sg8
g5
sg9
S'frank.bay@enron.com'
p396
sg11
g5
sg12
F0.0
sg13
I-201641
sg14
F0.5642411915228659
sg15
F0.0
sg16
I-82782
sg17
g5
sg18
g5
sg19
g5
sg20
I69
sg21
g5
sg22
F6.46735189064345e-06
sg23
I400000
sg24
I63014
sg25
F0.0416141235813367
sg26
F0.21533857709125384
sg27
g5
sg28
F0.0
sg29
I145796
sg30
F0.03766953765368387
sg31
I239671
sg32
I827696
sg33
F0.7644543353717891
sg34
g5
sg35
F0.0
sg36
F0.0
ssS'MCCARTY DANNY J'
p397
(dp398
g3
I1433
sg4
g5
sg6
g5
sg7
I00
sg8
g5
sg9
S'danny.mccarty@enron.com'
p399
sg11
I25
sg12
F0.017445917655268667
sg13
g5
sg14
F0.20295912341709862
sg15
F0.0
sg16
g5
sg17
I508
sg18
g5
sg19
I215
sg20
g5
sg21
g5
sg22
F0.005017748054557809
sg23
g5
sg24
I758931
sg25
F0.08575031525851198
sg26
F0.23250667773395478
sg27
I2
sg28
F0.0
sg29
I94556
sg30
F0.019248452304650512
sg31
g5
sg32
g5
sg33
F0.7644543353717891
sg34
I664375
sg35
F0.009302325581395349
sg36
F0.0
ssS'FUGH JOHN L'
p400
(dp401
g3
g5
sg4
I50591
sg6
g5
sg7
I00
sg8
g5
sg9
g5
sg11
g5
sg12
F0.0
sg13
g5
sg14
F0.20295912341709862
sg15
F0.0
sg16
g5
sg17
g5
sg18
g5
sg19
g5
sg20
g5
sg21
g5
sg22
F0.005017748054557809
sg23
g5
sg24
I176378
sg25
F0.08575031525851198
sg26
F0.23250667773395478
sg27
g5
sg28
F0.0
sg29
g5
sg30
F0.005039816597995539
sg31
g5
sg32
I50591
sg33
F0.7644543353717891
sg34
I176378
sg35
F0.0
sg36
F0.0
ssS'SCRIMSHAW MATTHEW'
p402
(dp403
g3
g5
sg4
g5
sg6
g5
sg7
I00
sg8
g5
sg9
S'matthew.scrimshaw@enron.com'
p404
sg11
g5
sg12
F0.0
sg13
g5
sg14
F0.20295912341709862
sg15
F0.0
sg16
g5
sg17
g5
sg18
g5
sg19
g5
sg20
g5
sg21
g5
sg22
F0.005017748054557809
sg23
g5
sg24
I759557
sg25
F0.08575031525851198
sg26
F0.23250667773395478
sg27
g5
sg28
F0.0
sg29
g5
sg30
F0.022019793857633082
sg31
g5
sg32
g5
sg33
F0.7644543353717891
sg34
I759557
sg35
F0.0
sg36
F0.0
ssS'KOENIG MARK E'
p405
(dp406
g3
I2374
sg4
g5
sg6
I127017
sg7
I01
sg8
I300000
sg9
S'mark.koenig@enron.com'
p407
sg11
I53
sg12
F0.02232518955349621
sg13
g5
sg14
F0.5549460884018983
sg15
F0.05555555555555555
sg16
g5
sg17
I2271
sg18
g5
sg19
I61
sg20
I150458
sg21
g5
sg22
F0.014523162627741058
sg23
I700000
sg24
I1920055
sg25
F0.07944514501891552
sg26
F0.2786048735079192
sg27
I15
sg28
F0.5
sg29
I1248318
sg30
F0.019462806032383255
sg31
I309946
sg32
I1587421
sg33
F0.7644543353717891
sg34
I671737
sg35
F0.2459016393442623
sg36
F1.0
ssS'SAVAGE FRANK'
p408
(dp409
g3
g5
sg4
g5
sg6
g5
sg7
I00
sg8
g5
sg9
g5
sg11
g5
sg12
F0.0
sg13
I-121284
sg14
F0.20295912341709862
sg15
F0.0
sg16
g5
sg17
g5
sg18
g5
sg19
g5
sg20
g5
sg21
I125034
sg22
F0.005017748054557809
sg23
g5
sg24
g5
sg25
F0.08575031525851198
sg26
F0.23250667773395478
sg27
g5
sg28
F0.0
sg29
g5
sg30
F0.03766953765368387
sg31
g5
sg32
I3750
sg33
F0.9046656610615327
sg34
g5
sg35
F0.0
sg36
F0.0
ssS'IZZO LAWRENCE L'
p410
(dp411
g3
I496
sg4
g5
sg6
I28093
sg7
I00
sg8
I312500
sg9
S'larry.izzo@enron.com'
p412
sg11
I28
sg12
F0.056451612903225805
sg13
g5
sg14
F0.1222360737484417
sg15
F0.0
sg16
g5
sg17
I437
sg18
g5
sg19
I19
sg20
I1553729
sg21
g5
sg22
F0.14997760076110112
sg23
g5
sg24
I5819980
sg25
F0.08575031525851198
sg26
F0.07633998060823871
sg27
I5
sg28
F0.0
sg29
I3654808
sg30
F0.06294601159833604
sg31
I85274
sg32
I1979596
sg33
F0.7644543353717891
sg34
I2165172
sg35
F0.2631578947368421
sg36
F0.0
ssS'TILNEY ELIZABETH A'
p413
(dp414
g3
I460
sg4
g5
sg6
g5
sg7
I00
sg8
I275000
sg9
S'elizabeth.tilney@enron.com'
p415
sg11
I10
sg12
F0.021739130434782608
sg13
I-575000
sg14
F0.20295912341709862
sg15
F0.0
sg16
g5
sg17
I379
sg18
g5
sg19
I19
sg20
I152055
sg21
g5
sg22
F0.014677317269074754
sg23
I300000
sg24
I1168042
sg25
F0.029003783102143764
sg26
F0.22224092777964335
sg27
I11
sg28
F0.0
sg29
I576792
sg30
F0.017119327564028862
sg31
I247338
sg32
I399393
sg33
F0.7644543353717891
sg34
I591250
sg35
F0.5789473684210527
sg36
F0.0
ssS'MARTIN AMANDA K'
p416
(dp417
g3
I1522
sg4
I85430
sg6
I8211
sg7
I00
sg8
I5145434
sg9
S'a..martin@enron.com'
p418
sg11
I8
sg12
F0.005256241787122208
sg13
g5
sg14
F0.035268901865581875
sg15
F0.0
sg16
g5
sg17
I477
sg18
g5
sg19
I230
sg20
I2818454
sg21
g5
sg22
F0.27205852046101214
sg23
g5
sg24
I2070306
sg25
F0.08575031525851198
sg26
F0.3142023495180418
sg27
I0
sg28
F0.0
sg29
g5
sg30
F0.06018387077585655
sg31
I349487
sg32
I8407016
sg33
F0.7644543353717891
sg34
I2070306
sg35
F0.0
sg36
F0.0
ssS'BUY RICHARD B'
p419
(dp420
g3
I3523
sg4
I649584
sg6
g5
sg7
I00
sg8
I769862
sg9
S'rick.buy@enron.com'
p421
sg11
I156
sg12
F0.04428044280442804
sg13
I-694862
sg14
F0.20295912341709862
sg15
F0.0
sg16
g5
sg17
I2333
sg18
g5
sg19
I1053
sg20
I400572
sg21
g5
sg22
F0.03866607681843354
sg23
I900000
sg24
I3444470
sg25
F0.1046658259773014
sg26
F0.2971503833789019
sg27
I71
sg28
F0.0
sg29
I901657
sg30
F0.07394149599044685
sg31
I330546
sg32
I2355702
sg33
F0.7644543353717891
sg34
I2542813
sg35
F0.06742640075973409
sg36
F0.0
ssS'GRAMM WENDY L'
p422
(dp423
g3
g5
sg4
g5
sg6
g5
sg7
I00
sg8
g5
sg9
g5
sg11
g5
sg12
F0.0
sg13
g5
sg14
F0.20295912341709862
sg15
F0.0
sg16
g5
sg17
g5
sg18
g5
sg19
g5
sg20
g5
sg21
I119292
sg22
F0.005017748054557809
sg23
g5
sg24
g5
sg25
F0.08575031525851198
sg26
F0.23250667773395478
sg27
g5
sg28
F0.0
sg29
g5
sg30
F0.03766953765368387
sg31
g5
sg32
I119292
sg33
F0.8619992718031788
sg34
g5
sg35
F0.0
sg36
F0.0
ssS'CAUSEY RICHARD A'
p424
(dp425
g3
I1892
sg4
g5
sg6
I30674
sg7
I01
sg8
I350000
sg9
S'richard.causey@enron.com'
p426
sg11
I58
sg12
F0.0306553911205074
sg13
I-235000
sg14
F0.13352579664501454
sg15
F0.05555555555555555
sg16
g5
sg17
I1585
sg18
g5
sg19
I49
sg20
I307895
sg21
g5
sg22
F0.0297201847114311
sg23
I1000000
sg24
I2502063
sg25
F0.11727616645649433
sg26
F0.3733517227968429
sg27
I12
sg28
F1.0
sg29
I2502063
sg30
F0.03766953765368387
sg31
I415189
sg32
I1868758
sg33
F0.7644543353717891
sg34
g5
sg35
F0.24489795918367346
sg36
F2.0
ssS'TAYLOR MITCHELL S'
p427
(dp428
g3
I533
sg4
I227449
sg6
g5
sg7
I00
sg8
g5
sg9
S'mitchell.taylor@enron.com'
p429
sg11
I0
sg12
F0.0
sg13
g5
sg14
F0.20295912341709862
sg15
F0.0
sg16
g5
sg17
I300
sg18
g5
sg19
I29
sg20
g5
sg21
g5
sg22
F0.005017748054557809
sg23
I600000
sg24
I3745048
sg25
F0.06683480453972258
sg26
F0.23833410906380287
sg27
I0
sg28
F0.0
sg29
I563798
sg30
F0.09253037820621801
sg31
I265214
sg32
I1092663
sg33
F0.7644543353717891
sg34
I3181250
sg35
F0.0
sg36
F0.0
ssS'DONAHUE JR JEFFREY M'
p430
(dp431
g3
I865
sg4
g5
sg6
I96268
sg7
I00
sg8
g5
sg9
S'jeff.donahue@enron.com'
p432
sg11
I188
sg12
F0.21734104046242775
sg13
I-300000
sg14
F0.4204448526999541
sg15
F0.0
sg16
g5
sg17
I772
sg18
g5
sg19
I22
sg20
I891
sg21
g5
sg22
F8.581307210122428e-05
sg23
I800000
sg24
I1080988
sg25
F0.09205548549810845
sg26
F0.25038598967753317
sg27
I11
sg28
F0.0
sg29
I315068
sg30
F0.022205060465832406
sg31
I278601
sg32
I875760
sg33
F0.7644543353717891
sg34
I765920
sg35
F0.5
sg36
F0.0
ssS'GLISAN JR BEN F'
p433
(dp434
g3
I873
sg4
g5
sg6
I125978
sg7
I01
sg8
I71023
sg9
S'ben.glisan@enron.com'
p435
sg11
I52
sg12
F0.05956471935853379
sg13
g5
sg14
F0.550401329746517
sg15
F0.0
sg16
g5
sg17
I874
sg18
g5
sg19
I16
sg20
I200308
sg21
g5
sg22
F0.019335065489660103
sg23
I600000
sg24
I778546
sg25
F0.06683480453972258
sg26
F0.24712161983325248
sg27
I6
sg28
F0.0
sg29
I393818
sg30
F0.011106184320505233
sg31
I274975
sg32
I1272284
sg33
F0.7644543353717891
sg34
I384728
sg35
F0.375
sg36
F0.0
ss.