(lp0
S'poi'
p1
aS'salary_scaled'
p2
aS'bonus_scaled'
p3
aS'director_fees_scaled'
p4
aS'other_scaled'
p5
aS'exercised_stock_options_scaled'
p6
aS'expenses_scaled'
p7
aS'email_addresses_per_poi_scaled'
p8
aS'poi_mention_rate'
p9
a.